
KeyboardSound.elf:     file format elf32-littlenios2
KeyboardSound.elf
architecture: nios2, flags 0x00000112:
EXEC_P, HAS_SYMS, D_PAGED
start address 0x000801b8

Program Header:
    LOAD off    0x00001000 vaddr 0x00080000 paddr 0x00080000 align 2**12
         filesz 0x00000020 memsz 0x00000020 flags r-x
    LOAD off    0x00001020 vaddr 0x00080020 paddr 0x00080020 align 2**12
         filesz 0x000130f0 memsz 0x000130f0 flags r-x
    LOAD off    0x00014110 vaddr 0x00093110 paddr 0x00094cfc align 2**12
         filesz 0x00001bec memsz 0x00001bec flags rw-
    LOAD off    0x000168e8 vaddr 0x000968e8 paddr 0x000968e8 align 2**12
         filesz 0x00000000 memsz 0x000002f4 flags rw-

Sections:
Idx Name          Size      VMA       LMA       File off  Algn
  0 .entry        00000020  00080000  00080000  00001000  2**5
                  CONTENTS, ALLOC, LOAD, READONLY, CODE
  1 .exceptions   00000198  00080020  00080020  00001020  2**2
                  CONTENTS, ALLOC, LOAD, READONLY, CODE
  2 .text         000125b0  000801b8  000801b8  000011b8  2**2
                  CONTENTS, ALLOC, LOAD, READONLY, CODE
  3 .rodata       000009a8  00092768  00092768  00013768  2**2
                  CONTENTS, ALLOC, LOAD, READONLY, DATA
  4 .rwdata       00001bec  00093110  00094cfc  00014110  2**2
                  CONTENTS, ALLOC, LOAD, DATA, SMALL_DATA
  5 .bss          000002f4  000968e8  000968e8  000168e8  2**2
                  ALLOC, SMALL_DATA
  6 .comment      00000023  00000000  00000000  00015cfc  2**0
                  CONTENTS, READONLY
  7 .debug_aranges 00001018  00000000  00000000  00015d20  2**3
                  CONTENTS, READONLY, DEBUGGING
  8 .debug_pubnames 00001c3e  00000000  00000000  00016d38  2**0
                  CONTENTS, READONLY, DEBUGGING
  9 .debug_info   0002ee1d  00000000  00000000  00018976  2**0
                  CONTENTS, READONLY, DEBUGGING
 10 .debug_abbrev 00009c05  00000000  00000000  00047793  2**0
                  CONTENTS, READONLY, DEBUGGING
 11 .debug_line   0001a0b9  00000000  00000000  00051398  2**0
                  CONTENTS, READONLY, DEBUGGING
 12 .debug_frame  000022ac  00000000  00000000  0006b454  2**2
                  CONTENTS, READONLY, DEBUGGING
 13 .debug_str    00002b27  00000000  00000000  0006d700  2**0
                  CONTENTS, READONLY, DEBUGGING
 14 .debug_loc    0000ea25  00000000  00000000  00070227  2**0
                  CONTENTS, READONLY, DEBUGGING
 15 .debug_alt_sim_info 00000040  00000000  00000000  0007ec4c  2**2
                  CONTENTS, READONLY, DEBUGGING
 16 .debug_ranges 00000a70  00000000  00000000  0007ec90  2**3
                  CONTENTS, READONLY, DEBUGGING
 17 .thread_model 00000003  00000000  00000000  0008353f  2**0
                  CONTENTS, READONLY
 18 .cpu          00000005  00000000  00000000  00083542  2**0
                  CONTENTS, READONLY
 19 .simulation_enabled 00000001  00000000  00000000  00083547  2**0
                  CONTENTS, READONLY
 20 .sysid_hash   00000004  00000000  00000000  00083548  2**0
                  CONTENTS, READONLY
 21 .sysid_base   00000004  00000000  00000000  0008354c  2**0
                  CONTENTS, READONLY
 22 .sysid_time   00000004  00000000  00000000  00083550  2**0
                  CONTENTS, READONLY
 23 .stderr_dev   0000000b  00000000  00000000  00083554  2**0
                  CONTENTS, READONLY
 24 .stdin_dev    0000000b  00000000  00000000  0008355f  2**0
                  CONTENTS, READONLY
 25 .stdout_dev   0000000b  00000000  00000000  0008356a  2**0
                  CONTENTS, READONLY
 26 .sopc_system_name 0000000a  00000000  00000000  00083575  2**0
                  CONTENTS, READONLY
 27 .quartus_project_dir 0000002d  00000000  00000000  0008357f  2**0
                  CONTENTS, READONLY
 28 .jdi          0000423d  00000000  00000000  000835ac  2**0
                  CONTENTS, READONLY
 29 .sopcinfo     00062c97  00000000  00000000  000877e9  2**0
                  CONTENTS, READONLY
SYMBOL TABLE:
00080000 l    d  .entry	00000000 .entry
00080020 l    d  .exceptions	00000000 .exceptions
000801b8 l    d  .text	00000000 .text
00092768 l    d  .rodata	00000000 .rodata
00093110 l    d  .rwdata	00000000 .rwdata
000968e8 l    d  .bss	00000000 .bss
00000000 l    d  .comment	00000000 .comment
00000000 l    d  .debug_aranges	00000000 .debug_aranges
00000000 l    d  .debug_pubnames	00000000 .debug_pubnames
00000000 l    d  .debug_info	00000000 .debug_info
00000000 l    d  .debug_abbrev	00000000 .debug_abbrev
00000000 l    d  .debug_line	00000000 .debug_line
00000000 l    d  .debug_frame	00000000 .debug_frame
00000000 l    d  .debug_str	00000000 .debug_str
00000000 l    d  .debug_loc	00000000 .debug_loc
00000000 l    d  .debug_alt_sim_info	00000000 .debug_alt_sim_info
00000000 l    d  .debug_ranges	00000000 .debug_ranges
000801f0 l       .text	00000000 alt_after_alt_main
00000000 l    df *ABS*	00000000 alt_irq_handler.c
00000000 l    df *ABS*	00000000 HEX.c
00000000 l    df *ABS*	00000000 LCD.c
00000000 l    df *ABS*	00000000 keyboard.c
00000000 l    df *ABS*	00000000 keys.c
00000000 l    df *ABS*	00000000 master_main.c
00000000 l    df *ABS*	00000000 s_sin.c
00000000 l    df *ABS*	00000000 e_rem_pio2.c
000929b4 l     O .rodata	00000108 two_over_pi
00092934 l     O .rodata	00000080 npio2_hw
00000000 l    df *ABS*	00000000 k_cos.c
00000000 l    df *ABS*	00000000 k_rem_pio2.c
00092abc l     O .rodata	00000010 init_jk
00092acc l     O .rodata	00000040 PIo2
00000000 l    df *ABS*	00000000 k_sin.c
00000000 l    df *ABS*	00000000 s_fabs.c
00000000 l    df *ABS*	00000000 s_floor.c
00000000 l    df *ABS*	00000000 s_scalbn.c
00000000 l    df *ABS*	00000000 s_copysign.c
00000000 l    df *ABS*	00000000 dp-bit.c
000833fc l     F .text	00000410 _fpadd_parts
00000000 l    df *ABS*	00000000 dp-bit.c
00000000 l    df *ABS*	00000000 dp-bit.c
00000000 l    df *ABS*	00000000 dp-bit.c
00000000 l    df *ABS*	00000000 dp-bit.c
00000000 l    df *ABS*	00000000 dp-bit.c
00000000 l    df *ABS*	00000000 dp-bit.c
00000000 l    df *ABS*	00000000 dp-bit.c
00000000 l    df *ABS*	00000000 dp-bit.c
00000000 l    df *ABS*	00000000 lib2-divmod.c
00084284 l     F .text	0000007c udivmodsi4
00000000 l    df *ABS*	00000000 lib2-mul.c
00000000 l    df *ABS*	00000000 libgcc2.c
00000000 l    df *ABS*	00000000 libgcc2.c
00000000 l    df *ABS*	00000000 dp-bit.c
00000000 l    df *ABS*	00000000 dp-bit.c
00000000 l    df *ABS*	00000000 dp-bit.c
00000000 l    df *ABS*	00000000 libgcc2.c
00000000 l    df *ABS*	00000000 fclose.c
00000000 l    df *ABS*	00000000 fflush.c
00000000 l    df *ABS*	00000000 findfp.c
00084e14 l     F .text	00000058 std
00084f20 l     F .text	00000008 __fp_lock
00084f28 l     F .text	00000008 __fp_unlock
00000000 l    df *ABS*	00000000 fopen.c
00000000 l    df *ABS*	00000000 fprintf.c
00000000 l    df *ABS*	00000000 mallocr.c
00000000 l    df *ABS*	00000000 fseek.c
00000000 l    df *ABS*	00000000 fstatr.c
00000000 l    df *ABS*	00000000 fwalk.c
00000000 l    df *ABS*	00000000 fwrite.c
00000000 l    df *ABS*	00000000 impure.c
00093110 l     O .rwdata	00000400 impure_data
00000000 l    df *ABS*	00000000 int_errno.c
00000000 l    df *ABS*	00000000 makebuf.c
00000000 l    df *ABS*	00000000 mallocr.c
00000000 l    df *ABS*	00000000 memset.c
00000000 l    df *ABS*	00000000 openr.c
00000000 l    df *ABS*	00000000 printf.c
00000000 l    df *ABS*	00000000 puts.c
00000000 l    df *ABS*	00000000 refill.c
00086acc l     F .text	0000001c lflush
00000000 l    df *ABS*	00000000 sbrkr.c
00000000 l    df *ABS*	00000000 stdio.c
00000000 l    df *ABS*	00000000 strlen.c
00000000 l    df *ABS*	00000000 vfprintf.c
00086d18 l     F .text	00000058 __sprint_r
00092c96 l     O .rodata	00000010 blanks.3452
00092c86 l     O .rodata	00000010 zeroes.3453
00000000 l    df *ABS*	00000000 writer.c
00000000 l    df *ABS*	00000000 wsetup.c
00000000 l    df *ABS*	00000000 closer.c
00000000 l    df *ABS*	00000000 dtoa.c
00088e7c l     F .text	00000244 quorem
00000000 l    df *ABS*	00000000 flags.c
00000000 l    df *ABS*	00000000 fvwrite.c
00000000 l    df *ABS*	00000000 isattyr.c
00000000 l    df *ABS*	00000000 locale.c
00094cc8 l     O .rwdata	00000004 charset
00092cc8 l     O .rodata	00000030 lconv
00000000 l    df *ABS*	00000000 lseekr.c
00000000 l    df *ABS*	00000000 memchr.c
00000000 l    df *ABS*	00000000 memcpy.c
00000000 l    df *ABS*	00000000 memmove.c
00000000 l    df *ABS*	00000000 mprec.c
00092e10 l     O .rodata	0000000c p05.2458
00000000 l    df *ABS*	00000000 readr.c
00000000 l    df *ABS*	00000000 mallocr.c
00000000 l    df *ABS*	00000000 s_isinfd.c
00000000 l    df *ABS*	00000000 s_isnand.c
00000000 l    df *ABS*	00000000 strcmp.c
00000000 l    df *ABS*	00000000 mallocr.c
00000000 l    df *ABS*	00000000 libgcc2.c
00000000 l    df *ABS*	00000000 libgcc2.c
00000000 l    df *ABS*	00000000 dp-bit.c
00000000 l    df *ABS*	00000000 dp-bit.c
00000000 l    df *ABS*	00000000 dp-bit.c
00000000 l    df *ABS*	00000000 alt_close.c
0008d91c l     F .text	00000060 alt_get_errno
00000000 l    df *ABS*	00000000 alt_dev.c
0008d97c l     F .text	0000002c alt_dev_null_write
00000000 l    df *ABS*	00000000 alt_errno.c
00000000 l    df *ABS*	00000000 alt_fstat.c
0008da80 l     F .text	00000060 alt_get_errno
00000000 l    df *ABS*	00000000 alt_isatty.c
0008dba4 l     F .text	00000060 alt_get_errno
00000000 l    df *ABS*	00000000 alt_load.c
0008dc84 l     F .text	0000006c alt_load_section
00000000 l    df *ABS*	00000000 alt_lseek.c
0008dde4 l     F .text	00000060 alt_get_errno
00000000 l    df *ABS*	00000000 alt_main.c
00000000 l    df *ABS*	00000000 alt_malloc_lock.c
00000000 l    df *ABS*	00000000 alt_open.c
0008def0 l     F .text	000000f8 alt_file_locked
0008e174 l     F .text	00000060 alt_get_errno
00000000 l    df *ABS*	00000000 alt_printf.c
00000000 l    df *ABS*	00000000 alt_putchar.c
00000000 l    df *ABS*	00000000 alt_read.c
0008e590 l     F .text	00000060 alt_get_errno
00000000 l    df *ABS*	00000000 alt_release_fd.c
00000000 l    df *ABS*	00000000 alt_sbrk.c
00094ce4 l     O .rwdata	00000004 heap_end
00000000 l    df *ABS*	00000000 alt_write.c
0008e848 l     F .text	00000060 alt_get_errno
00000000 l    df *ABS*	00000000 alt_sys_init.c
00093acc l     O .rwdata	00001060 jtag_uart_0
00094b2c l     O .rwdata	00000120 lcd_0
00094c4c l     O .rwdata	00000030 audio_and_video_config_0
00094c7c l     O .rwdata	00000038 ps2_port
0008e99c l     F .text	00000038 alt_dev_reg
00000000 l    df *ABS*	00000000 altera_avalon_jtag_uart_fd.c
00000000 l    df *ABS*	00000000 altera_avalon_jtag_uart_init.c
0008ebd4 l     F .text	0000022c altera_avalon_jtag_uart_irq
0008ee00 l     F .text	000000b0 altera_avalon_jtag_uart_timeout
00000000 l    df *ABS*	00000000 altera_avalon_jtag_uart_ioctl.c
00000000 l    df *ABS*	00000000 altera_avalon_jtag_uart_read.c
00000000 l    df *ABS*	00000000 altera_avalon_jtag_uart_write.c
00000000 l    df *ABS*	00000000 altera_avalon_lcd_16207.c
00094ce8 l     O .rwdata	00000004 colstart
0008f47c l     F .text	000000b8 lcd_write_command
0008f534 l     F .text	000000d4 lcd_write_data
0008f608 l     F .text	000000d8 lcd_clear_screen
0008f6e0 l     F .text	00000214 lcd_repaint_screen
0008f8f4 l     F .text	000000e0 lcd_scroll_up
0008f9d4 l     F .text	000002e4 lcd_handle_escape
000901f4 l     F .text	000000cc alt_lcd_16207_timeout
00000000 l    df *ABS*	00000000 altera_avalon_lcd_16207_fd.c
00000000 l    df *ABS*	00000000 altera_avalon_timer_sc.c
00090454 l     F .text	00000074 alt_avalon_timer_sc_irq
00000000 l    df *ABS*	00000000 altera_avalon_timer_vars.c
00000000 l    df *ABS*	00000000 altera_up_avalon_audio_and_video_config.c
00000000 l    df *ABS*	00000000 altera_up_avalon_ps2.c
00000000 l    df *ABS*	00000000 alt_alarm_start.c
00000000 l    df *ABS*	00000000 alt_dcache_flush_all.c
00000000 l    df *ABS*	00000000 alt_dev_llist_insert.c
000915fc l     F .text	00000060 alt_get_errno
00000000 l    df *ABS*	00000000 alt_do_ctors.c
00000000 l    df *ABS*	00000000 alt_do_dtors.c
00000000 l    df *ABS*	00000000 alt_find_dev.c
00000000 l    df *ABS*	00000000 alt_find_file.c
00000000 l    df *ABS*	00000000 alt_get_fd.c
00000000 l    df *ABS*	00000000 alt_icache_flush_all.c
00000000 l    df *ABS*	00000000 alt_io_redirect.c
000919c4 l     F .text	000000d8 alt_open_fd
00000000 l    df *ABS*	00000000 alt_irq_register.c
00000000 l    df *ABS*	00000000 alt_irq_vars.c
00000000 l    df *ABS*	00000000 alt_tick.c
00000000 l    df *ABS*	00000000 alt_usleep.c
00000000 l    df *ABS*	00000000 altera_nios2_irq.c
00000000 l    df *ABS*	00000000 alt_busy_sleep.c
00000000 l    df *ABS*	00000000 atexit.c
00000000 l    df *ABS*	00000000 ctype_.c
00092f8d l     O .rodata	00000180 _ctype_b
00000000 l    df *ABS*	00000000 exit.c
00000000 l    df *ABS*	00000000 memcmp.c
00000000 l    df *ABS*	00000000 putc.c
00000000 l    df *ABS*	00000000 wbuf.c
00000000 l    df *ABS*	00000000 __atexit.c
00000000 l    df *ABS*	00000000 __call_atexit.c
00092550 l     F .text	00000004 register_fini
00000000 l    df *ABS*	00000000 alt_exit.c
00092704 l     F .text	00000040 alt_sim_halt
000906a4 g     F .text	00000038 alt_up_av_config_reset
0008b3cc g     F .text	00000094 _mprec_log10
000806dc g     F .text	000001f4 convertKeyboardToAscii
00090b48 g     F .text	00000064 alt_up_av_config_read_D5M_cfg_register
0008b4b8 g     F .text	00000088 __any_on
0008abb0 g     F .text	00000070 _isatty_r
00092de8 g     O .rodata	00000028 __mprec_tinytens
00090714 g     F .text	00000030 alt_up_av_config_disable_interrupt
0008de44 g     F .text	0000006c alt_main
00086854 g     F .text	000000a0 _puts_r
0009694c g     O .bss	00000100 alt_irq
00090f24 g     F .text	00000058 alt_up_ps2_disable_read_interrupt
00082fbc g     F .text	00000018 fabs
0008ace4 g     F .text	00000078 _lseek_r
00094cfc g       *ABS*	00000000 __flash_rwdata_start
0008a674 g     F .text	000000a0 __sflags
00083f1c g     F .text	00000088 __eqdf2
00096bdc g       *ABS*	00000000 __alt_heap_start
000907e4 g     F .text	000000ac alt_up_av_config_write_audio_cfg_register
000867dc g     F .text	00000044 printf
00086b60 g     F .text	00000068 __sseek
00084e7c g     F .text	000000a4 __sinit
000922d0 g     F .text	00000130 __swbuf_r
00090d3c g     F .text	00000034 read_CE_bit
0008ac44 g     F .text	00000084 _setlocale_r
00084f7c g     F .text	0000009c __sfmoreglue
0008ded0 g     F .text	00000020 __malloc_unlock
000910d0 g     F .text	000000b0 alt_up_ps2_read_data_byte_timeout
00096914 g     O .bss	00000004 altera_avalon_timer_ts_freq
0008aee0 g     F .text	000000e0 memmove
00084f6c g     F .text	00000010 _cleanup
0008b540 g     F .text	000000bc _Balloc
00083fa4 g     F .text	00000088 __gtdf2
00000000  w      *UND*	00000000 __errno
00080000 g     F .entry	0000000c __reset
00080020 g       *ABS*	00000000 __flash_exceptions_start
00085b18 g     F .text	00000074 _fstat_r
000808d0 g     F .text	000000ec updateKeyKeys
000968e8 g     O .bss	00000004 errno
00082fd4 g     F .text	00000224 floor
00096908 g     O .bss	00000004 alt_argv
0009ccb4 g       *ABS*	00000000 _gp
00091e78 g     F .text	00000030 usleep
0009394c g     O .rwdata	00000180 alt_fd_list
000810cc g     F .text	00000828 __ieee754_rem_pio2
00091724 g     F .text	00000094 alt_find_dev
0008ae40 g     F .text	000000a0 memcpy
00084f60 g     F .text	0000000c _cleanup_r
000840b4 g     F .text	000000f8 __floatsidf
00091a9c g     F .text	00000078 alt_io_redirect
0008d600 g     F .text	00000088 __ltdf2
00092768 g       *ABS*	00000000 __DTOR_END__
000868f4 g     F .text	00000014 puts
00091ea8 g     F .text	00000020 altera_nios2_irq_init
0008b31c g     F .text	000000b0 __ratio
0008f018 g     F .text	00000224 altera_avalon_jtag_uart_read
00000000  w      *UND*	00000000 malloc
00086820 g     F .text	00000034 _printf_r
000843c0 g     F .text	00000008 __udivsi3
0008dae0 g     F .text	000000c4 isatty
00092cf8 g     O .rodata	000000c8 __mprec_tens
0008ac20 g     F .text	00000008 __locale_charset
000818f4 g     F .text	0000052c __kernel_cos
000968ec g     O .bss	00000004 __malloc_top_pad
00090618 g     F .text	0000008c alt_up_av_config_read_data
00094cc4 g     O .rwdata	00000004 __mb_cur_max
0008ac28 g     F .text	0000000c _localeconv_r
0008bca4 g     F .text	0000003c __i2b
0008a714 g     F .text	0000049c __sfvwrite_r
00086ae8 g     F .text	00000070 _sbrk_r
0008c04c g     F .text	00000078 _read_r
00093918 g     O .rwdata	0000000c __lc_ctype
00094cdc g     O .rwdata	00000004 alt_max_fd
000848c0 g     F .text	00000138 __unpack_d
00084ac0 g     F .text	00000110 _fclose_r
00090d70 g     F .text	00000034 read_num_bytes_available
00084de0 g     F .text	00000034 fflush
000968f0 g     O .bss	00000004 __malloc_max_sbrked_mem
00091b14 g     F .text	000001c0 alt_irq_register
00090cd8 g     F .text	00000034 read_RI_bit
00082ca4 g     F .text	00000318 __kernel_sin
0008388c g     F .text	00000074 __adddf3
0008b1fc g     F .text	00000120 __b2d
0008cf18 g     F .text	00000660 __umoddi3
0008dcf0 g     F .text	000000f4 lseek
00094cb8 g     O .rwdata	00000004 _global_impure_ptr
0008c0c4 g     F .text	000005f4 _realloc_r
00096bdc g       *ABS*	00000000 __bss_end
00091d6c g     F .text	0000010c alt_tick
0008c8ac g     F .text	0000066c __udivdi3
00092dc0 g     O .rodata	00000028 __mprec_bigtens
0008bf2c g     F .text	00000120 __s2b
0008d688 g     F .text	00000194 __floatunsidf
0008b11c g     F .text	00000060 __mcmp
00090dd8 g     F .text	0000002c read_data_byte
00094cf8 g     O .rwdata	00000004 __ctype_ptr
00084f48 g     F .text	00000018 __fp_lock_all
00091cd4 g     F .text	00000098 alt_alarm_stop
00090d0c g     F .text	00000030 read_RE_bit
00096918 g     O .bss	00000004 alt_irq_active
000800ec g     F .exceptions	000000cc alt_irq_handler
00093924 g     O .rwdata	00000028 alt_dev_null
00081e20 g     F .text	00000e84 __kernel_rem_pio2
00090f7c g     F .text	00000078 alt_up_ps2_write_data_byte
0009152c g     F .text	0000001c alt_dcache_flush_all
0008afe8 g     F .text	00000070 __hi0bits
000841ac g     F .text	000000d8 __fixdfsi
00094cfc g       *ABS*	00000000 __ram_rwdata_end
00094cd4 g     O .rwdata	00000008 alt_dev_list
0008e724 g     F .text	00000124 write
000921e8 g     F .text	000000e8 _putc_r
00093110 g       *ABS*	00000000 __ram_rodata_end
0008d9a8 g     F .text	000000d8 fstat
00085218 g     F .text	0000002c fprintf
0008be0c g     F .text	00000120 __pow5mult
000968f8 g     O .bss	00000004 __nlocale_changed
000843c8 g     F .text	00000008 __umodsi3
00096bdc g       *ABS*	00000000 end
000912f0 g     F .text	000000a8 alt_up_ps2_write_fd
000802dc g     F .text	000000b0 writeToLCD
0008fcb8 g     F .text	0000053c altera_avalon_lcd_16207_write
00085af4 g     F .text	00000024 fseek
0008eb1c g     F .text	000000b8 altera_avalon_jtag_uart_init
0008038c g     F .text	00000244 updateKeyboardKeys
00092764 g       *ABS*	00000000 __CTOR_LIST__
00100000 g       *ABS*	00000000 __alt_stack_pointer
000904c8 g     F .text	00000088 alt_avalon_timer_sc_init
0008452c g     F .text	00000080 __clzsi2
0008f23c g     F .text	00000240 altera_avalon_jtag_uart_write
00084e6c g     F .text	00000004 __sfp_lock_acquire
0008ad5c g     F .text	000000e4 memchr
00086d70 g     F .text	00001ec4 ___vfprintf_internal_r
000853a4 g     F .text	00000314 _free_r
0008e1d4 g     F .text	00000258 alt_printf
00092554 g     F .text	000001b0 __call_exitprocs
000801f4 g     F .text	000000a8 BCDto7Seg
000968fc g     O .bss	00000004 __mlocale_changed
00094cc0 g     O .rwdata	00000004 __malloc_sbrk_base
000801b8 g     F .text	0000003c _start
0009691c g     O .bss	00000004 _alt_tick_rate
00080f60 g     F .text	0000016c sin
0008b904 g     F .text	0000014c __lshift
000905b4 g     F .text	00000064 alt_up_av_config_write_data
00096920 g     O .bss	00000004 _alt_nticks
0008e46c g     F .text	00000124 read
0008e8dc g     F .text	000000c0 alt_sys_init
00086764 g     F .text	00000078 _open_r
0009241c g     F .text	00000134 __register_exitproc
00090c74 g     F .text	00000064 alt_up_av_config_write_LTM_cfg_register
000911fc g     F .text	00000058 alt_up_ps2_clear_fifo
0008ba50 g     F .text	00000254 __multiply
0008eeb0 g     F .text	00000074 altera_avalon_jtag_uart_close
000843d0 g     F .text	00000038 __mulsi3
00093110 g       *ABS*	00000000 __ram_rwdata_start
00092768 g       *ABS*	00000000 __ram_rodata_start
00096924 g     O .bss	00000028 __malloc_current_mallinfo
0008b5fc g     F .text	0000017c __d2b
0008e9d4 g     F .text	00000058 altera_avalon_jtag_uart_read_fd
000918d8 g     F .text	000000d0 alt_get_fd
00091ec8 g     F .text	0000015c alt_busy_sleep
000849f8 g     F .text	000000c8 __fpcmp_parts_d
00088e0c g     F .text	00000070 _close_r
00092070 g     F .text	00000074 memcmp
0008ea84 g     F .text	00000048 altera_avalon_jtag_uart_close_fd
00096bdc g       *ABS*	00000000 __alt_stack_base
0008eacc g     F .text	00000050 altera_avalon_jtag_uart_ioctl_fd
00085d0c g     F .text	000000ac _fwrite_r
00088cd0 g     F .text	0000013c __swsetup_r
00083cc4 g     F .text	00000258 __divdf3
00085018 g     F .text	000000f0 __sfp
0008b460 g     F .text	00000058 __copybits
00093510 g     O .rwdata	00000408 __malloc_av_
00084e78 g     F .text	00000004 __sinit_lock_release
00083900 g     F .text	000003c4 __muldf3
00086c44 g     F .text	00000060 __sread
000917b8 g     F .text	00000120 alt_find_file
00091548 g     F .text	000000b4 alt_dev_llist_insert
0008deb0 g     F .text	00000020 __malloc_lock
00085244 g     F .text	00000034 _fprintf_r
0008e668 g     F .text	000000bc sbrk
00084be4 g     F .text	000001fc _fflush_r
0008c7e4 g     F .text	000000c8 _calloc_r
000851fc g     F .text	0000001c fopen
000968e8 g       *ABS*	00000000 __bss_start
000866cc g     F .text	00000098 memset
0008029c g     F .text	00000040 printBCDon7Seg
00080ae4 g     F .text	0000047c main
0009690c g     O .bss	00000004 alt_envp
000968f4 g     O .bss	00000004 __malloc_max_total_mem
0008ea2c g     F .text	00000058 altera_avalon_jtag_uart_write_fd
00092400 g     F .text	0000001c __swbuf
000902c0 g     F .text	0000013c altera_avalon_lcd_16207_init
00086b58 g     F .text	00000008 __sclose
00100000 g       *ABS*	00000000 __alt_heap_limit
00084bd0 g     F .text	00000014 fclose
00091180 g     F .text	0000007c alt_up_ps2_read_data_byte
00096a4c g     O .bss	00000190 _atexit0
000890c0 g     F .text	000015b4 _dtoa_r
00085f8c g     F .text	00000740 _malloc_r
00094ce0 g     O .rwdata	00000004 alt_errno
00085c54 g     F .text	000000b8 _fwalk
00091398 g     F .text	00000040 alt_up_ps2_open_dev
000920e4 g     F .text	00000104 putc
00084300 g     F .text	00000060 __divsi3
00092b0c g     O .rodata	00000014 __thenan_df
00085278 g     F .text	0000012c _malloc_trim_r
00090ed0 g     F .text	00000054 alt_up_ps2_enable_read_interrupt
00092768 g       *ABS*	00000000 __CTOR_END__
0008c728 g     F .text	000000bc strcmp
00092768 g       *ABS*	00000000 __flash_rodata_start
00092768 g       *ABS*	00000000 __DTOR_LIST__
000833d8 g     F .text	00000024 copysign
0008d578 g     F .text	00000088 __nedf2
00080000 g       *ABS*	00000000 __alt_mem_sram_0
00090550 g     F .text	00000064 alt_up_av_config_open_dev
0008e8a8 g     F .text	00000034 alt_irq_init
0008e5f0 g     F .text	00000078 alt_release_fd
00090da4 g     F .text	00000034 read_data_valid
00092b20 g     O .rodata	00000100 __clz_tab
00096900 g     O .bss	00000004 _PathLocale
00091064 g     F .text	0000006c alt_up_ps2_write_data_byte_with_ack
00092024 g     F .text	00000014 atexit
00088c58 g     F .text	00000078 _write_r
000907ac g     F .text	00000038 alt_up_av_config_read_ready
0008acc8 g     F .text	0000001c setlocale
00094cb4 g     O .rwdata	00000004 _impure_ptr
00096904 g     O .bss	00000004 alt_argc
000831f8 g     F .text	000001e0 scalbn
00096910 g     O .bss	00000004 altera_avalon_timer_ts_base
000916c0 g     F .text	00000064 _do_dtors
000856b8 g     F .text	0000043c _fseek_r
00086908 g     F .text	000001c4 __srefill_r
00080020 g       .exceptions	00000000 alt_irq_entry
0008b17c g     F .text	00000080 __ulp
0008c6b8 g     F .text	00000040 __isinfd
00084f30 g     F .text	00000018 __fp_unlock_all
000903fc g     F .text	00000058 altera_avalon_lcd_16207_write_fd
00094ccc g     O .rwdata	00000008 alt_fs_list
00080020 g       *ABS*	00000000 __ram_exceptions_start
0008ac34 g     F .text	00000010 localeconv
000906dc g     F .text	00000038 alt_up_av_config_enable_interrupt
00085db8 g     F .text	00000040 fwrite
00090744 g     F .text	00000068 alt_up_av_config_read_acknowledge
00090ae4 g     F .text	00000064 alt_up_av_config_write_DC2_cfg_register
00094cfc g       *ABS*	00000000 _edata
00096bdc g       *ABS*	00000000 _end
000801b8 g       *ABS*	00000000 __ram_exceptions_end
0008ef24 g     F .text	000000f4 altera_avalon_jtag_uart_ioctl
000805d0 g     F .text	0000010c keyboardKeyToHertz
00086bc8 g     F .text	0000007c __swrite
00094cbc g     O .rwdata	00000004 __malloc_trim_threshold
00092038 g     F .text	00000038 exit
00085b8c g     F .text	000000c8 _fwalk_reent
00090e04 g     F .text	000000cc alt_up_ps2_init
0008b778 g     F .text	0000018c __mdiff
00090c10 g     F .text	00000064 alt_up_av_config_read_LTM_cfg_register
00084360 g     F .text	00000060 __modsi3
00100000 g       *ABS*	00000000 __alt_data_end
00080020 g     F .exceptions	00000000 alt_exception
00084e70 g     F .text	00000004 __sfp_lock_release
00092e8c g     O .rodata	00000101 _ctype_
00085108 g     F .text	000000f4 _fopen_r
00092744 g     F .text	00000020 _exit
0008c6f8 g     F .text	00000030 __isnand
000913d8 g     F .text	00000154 alt_alarm_start
00084408 g     F .text	00000124 __muldi3
00085df8 g     F .text	00000194 __smakebuf_r
00090ff4 g     F .text	00000070 alt_up_ps2_wait_for_ack
00086ca4 g     F .text	00000074 strlen
0008dfe8 g     F .text	0000018c open
0008402c g     F .text	00000088 __gedf2
0008e42c g     F .text	00000040 alt_putchar
00090890 g     F .text	000000f8 alt_up_av_config_read_video_cfg_register
000919a8 g     F .text	0000001c alt_icache_flush_all
00094cec g     O .rwdata	00000004 alt_priority_mask
00088c34 g     F .text	00000024 __vfprintf_internal
00090bac g     F .text	00000064 alt_up_av_config_write_D5M_cfg_register
000809bc g     F .text	00000128 initCodecAsMaster
00091254 g     F .text	0000009c alt_up_ps2_read_fd
0008380c g     F .text	00000080 __subdf3
0008b058 g     F .text	000000c4 __lo0bits
00094cf0 g     O .rwdata	00000008 alt_alarm_list
0009165c g     F .text	00000064 _do_ctors
0008d81c g     F .text	00000100 close
0008dc04 g     F .text	00000080 alt_load
00090988 g     F .text	000000f8 alt_up_av_config_write_video_cfg_register
000845ac g     F .text	00000314 __pack_d
00000000  w      *UND*	00000000 free
00084e74 g     F .text	00000004 __sinit_lock_acquire
0008bce0 g     F .text	0000012c __multadd
0008afc0 g     F .text	00000028 _Bfree
00090a80 g     F .text	00000064 alt_up_av_config_read_DC2_cfg_register



Disassembly of section .entry:

00080000 <__reset>:
 * Jump to the _start entry point in the .text section if reset code
 * is allowed or if optimizing for RTL simulation.
 */
#if defined(ALT_ALLOW_CODE_AT_RESET) || defined(ALT_SIM_OPTIMIZE)
    /* Jump to the _start entry point in the .text section. */
    movhi r1, %hi(_start)
   80000:	00400234 	movhi	at,8
    ori r1, r1, %lo(_start)
   80004:	08406e14 	ori	at,at,440
    jmp r1
   80008:	0800683a 	jmp	at
	...

Disassembly of section .exceptions:

00080020 <alt_exception>:
         * Process an exception.  For all exceptions we must preserve all
         * caller saved registers on the stack (See the Nios2 ABI
         * documentation for details).
         */

        addi  sp, sp, -76
   80020:	deffed04 	addi	sp,sp,-76

#endif

#endif

        stw   ra,  0(sp)
   80024:	dfc00015 	stw	ra,0(sp)
        /*
         * Leave a gap in the stack frame at 4(sp) for the muldiv handler to
         * store zero into.
         */

        stw   r1,   8(sp)
   80028:	d8400215 	stw	at,8(sp)
        stw   r2,  12(sp)
   8002c:	d8800315 	stw	r2,12(sp)
        stw   r3,  16(sp)
   80030:	d8c00415 	stw	r3,16(sp)
        stw   r4,  20(sp)
   80034:	d9000515 	stw	r4,20(sp)
        stw   r5,  24(sp)
   80038:	d9400615 	stw	r5,24(sp)
        stw   r6,  28(sp)
   8003c:	d9800715 	stw	r6,28(sp)
        stw   r7,  32(sp)
   80040:	d9c00815 	stw	r7,32(sp)

        rdctl r5, estatus
   80044:	000b307a 	rdctl	r5,estatus

        stw   r8,  36(sp)
   80048:	da000915 	stw	r8,36(sp)
        stw   r9,  40(sp)
   8004c:	da400a15 	stw	r9,40(sp)
        stw   r10, 44(sp)
   80050:	da800b15 	stw	r10,44(sp)
        stw   r11, 48(sp)
   80054:	dac00c15 	stw	r11,48(sp)
        stw   r12, 52(sp)
   80058:	db000d15 	stw	r12,52(sp)
        stw   r13, 56(sp)
   8005c:	db400e15 	stw	r13,56(sp)
        stw   r14, 60(sp)
   80060:	db800f15 	stw	r14,60(sp)
        stw   r15, 64(sp)
   80064:	dbc01015 	stw	r15,64(sp)
        /*
         * ea-4 contains the address of the instruction being executed
         * when the exception occured. For interrupt exceptions, we will
         * will be re-issue the isntruction. Store it in 72(sp)
         */
        stw   r5,  68(sp)  /* estatus */
   80068:	d9401115 	stw	r5,68(sp)
        addi  r15, ea, -4  /* instruction that caused exception */
   8006c:	ebffff04 	addi	r15,ea,-4
        stw   r15,  72(sp)
   80070:	dbc01215 	stw	r15,72(sp)
#else
        /*
         * Test to see if the exception was a software exception or caused 
         * by an external interrupt, and vector accordingly.
         */
        rdctl r4, ipending
   80074:	0009313a 	rdctl	r4,ipending
        andi  r2, r5, 1
   80078:	2880004c 	andi	r2,r5,1
        beq   r2, zero, .Lnot_irq
   8007c:	10000326 	beq	r2,zero,8008c <alt_exception+0x6c>
        beq   r4, zero, .Lnot_irq
   80080:	20000226 	beq	r4,zero,8008c <alt_exception+0x6c>
        /*
         * Now that all necessary registers have been preserved, call 
         * alt_irq_handler() to process the interrupts.
         */

        call alt_irq_handler
   80084:	00800ec0 	call	800ec <alt_irq_handler>

        .section .exceptions.irqreturn, "xa"

        br    .Lexception_exit
   80088:	00000306 	br	80098 <alt_exception+0x78>
         * upon completion, so we write ea (address of instruction *after*
         * the one where the exception occured) into 72(sp). The actual
         * instruction that caused the exception is written in r2, which these
         * handlers will utilize.
         */
        stw   ea,  72(sp)  /* Don't re-issue */
   8008c:	df401215 	stw	ea,72(sp)
        ldw   r2, -4(ea)   /* Instruction that caused exception */
   80090:	e8bfff17 	ldw	r2,-4(ea)
#ifdef NIOS2_HAS_DEBUG_STUB
       /*
        *  Either tell the user now (if there is a debugger attached) or go into
        *  the debug monitor which will loop until a debugger is attached.
        */
        break
   80094:	003da03a 	break	0
        /* 
         * Restore the saved registers, so that all general purpose registers 
         * have been restored to their state at the time the interrupt occured.
         */

        ldw   r5,  68(sp)
   80098:	d9401117 	ldw	r5,68(sp)
        ldw   ea,  72(sp)  /* This becomes the PC once eret is executed */
   8009c:	df401217 	ldw	ea,72(sp)
        ldw   ra,   0(sp)
   800a0:	dfc00017 	ldw	ra,0(sp)

        wrctl estatus, r5
   800a4:	2801707a 	wrctl	estatus,r5

        ldw   r1,   8(sp)
   800a8:	d8400217 	ldw	at,8(sp)
        ldw   r2,  12(sp)
   800ac:	d8800317 	ldw	r2,12(sp)
        ldw   r3,  16(sp)
   800b0:	d8c00417 	ldw	r3,16(sp)
        ldw   r4,  20(sp)
   800b4:	d9000517 	ldw	r4,20(sp)
        ldw   r5,  24(sp)
   800b8:	d9400617 	ldw	r5,24(sp)
        ldw   r6,  28(sp)
   800bc:	d9800717 	ldw	r6,28(sp)
        ldw   r7,  32(sp)
   800c0:	d9c00817 	ldw	r7,32(sp)
#ifdef ALT_STACK_CHECK
        ldw   et, %gprel(alt_exception_old_stack_limit)(gp)
#endif
#endif

        ldw   r8,  36(sp)
   800c4:	da000917 	ldw	r8,36(sp)
        ldw   r9,  40(sp)
   800c8:	da400a17 	ldw	r9,40(sp)
        ldw   r10, 44(sp)
   800cc:	da800b17 	ldw	r10,44(sp)
        ldw   r11, 48(sp)
   800d0:	dac00c17 	ldw	r11,48(sp)
        ldw   r12, 52(sp)
   800d4:	db000d17 	ldw	r12,52(sp)
        ldw   r13, 56(sp)
   800d8:	db400e17 	ldw	r13,56(sp)
        ldw   r14, 60(sp)
   800dc:	db800f17 	ldw	r14,60(sp)
        ldw   r15, 64(sp)
   800e0:	dbc01017 	ldw	r15,64(sp)
#endif

        ldw   sp,  76(sp)

#else
        addi  sp, sp, 76
   800e4:	dec01304 	addi	sp,sp,76

        /*
         * Return to the interrupted instruction.
         */

        eret
   800e8:	ef80083a 	eret

000800ec <alt_irq_handler>:
 * instruction is present if the macro ALT_CI_INTERRUPT_VECTOR defined.
 */

void alt_irq_handler (void) __attribute__ ((section (".exceptions")));
void alt_irq_handler (void)
{
   800ec:	defff904 	addi	sp,sp,-28
   800f0:	dfc00615 	stw	ra,24(sp)
   800f4:	df000515 	stw	fp,20(sp)
   800f8:	df000504 	addi	fp,sp,20
#ifndef NIOS2_EIC_PRESENT
static ALT_INLINE alt_u32 ALT_ALWAYS_INLINE alt_irq_pending (void)
{
  alt_u32 active;

  NIOS2_READ_IPENDING (active);
   800fc:	0005313a 	rdctl	r2,ipending
   80100:	e0bffc15 	stw	r2,-16(fp)

  return active;
   80104:	e0bffc17 	ldw	r2,-16(fp)
   * Consider the case where the high priority interupt is asserted during
   * the interrupt entry sequence for a lower priority interrupt to see why
   * this is the case.
   */

  active = alt_irq_pending ();
   80108:	e0bfff15 	stw	r2,-4(fp)

  do
  {
    i = 0;
   8010c:	e03ffd15 	stw	zero,-12(fp)
    mask = 1;
   80110:	00800044 	movi	r2,1
   80114:	e0bffe15 	stw	r2,-8(fp)
     * called to clear the interrupt condition.
     */

    do
    {
      if (active & mask)
   80118:	e0ffff17 	ldw	r3,-4(fp)
   8011c:	e0bffe17 	ldw	r2,-8(fp)
   80120:	1884703a 	and	r2,r3,r2
   80124:	1005003a 	cmpeq	r2,r2,zero
   80128:	1000171e 	bne	r2,zero,80188 <alt_irq_handler+0x9c>
      { 
#ifdef ALT_ENHANCED_INTERRUPT_API_PRESENT
        alt_irq[i].handler(alt_irq[i].context); 
#else
        alt_irq[i].handler(alt_irq[i].context, i); 
   8012c:	e0bffd17 	ldw	r2,-12(fp)
   80130:	00c00274 	movhi	r3,9
   80134:	18da5304 	addi	r3,r3,26956
   80138:	100490fa 	slli	r2,r2,3
   8013c:	10c5883a 	add	r2,r2,r3
   80140:	11800017 	ldw	r6,0(r2)
   80144:	e0bffd17 	ldw	r2,-12(fp)
   80148:	00c00274 	movhi	r3,9
   8014c:	18da5304 	addi	r3,r3,26956
   80150:	100490fa 	slli	r2,r2,3
   80154:	10c5883a 	add	r2,r2,r3
   80158:	10800104 	addi	r2,r2,4
   8015c:	11000017 	ldw	r4,0(r2)
   80160:	e17ffd17 	ldw	r5,-12(fp)
   80164:	303ee83a 	callr	r6
#ifndef NIOS2_EIC_PRESENT
static ALT_INLINE alt_u32 ALT_ALWAYS_INLINE alt_irq_pending (void)
{
  alt_u32 active;

  NIOS2_READ_IPENDING (active);
   80168:	0005313a 	rdctl	r2,ipending
   8016c:	e0bffb15 	stw	r2,-20(fp)

  return active;
   80170:	e0bffb17 	ldw	r2,-20(fp)
      mask <<= 1;
      i++;

    } while (1);

    active = alt_irq_pending ();
   80174:	e0bfff15 	stw	r2,-4(fp)
    
  } while (active);
   80178:	e0bfff17 	ldw	r2,-4(fp)
   8017c:	1004c03a 	cmpne	r2,r2,zero
   80180:	103fe21e 	bne	r2,zero,8010c <alt_irq_handler+0x20>
   80184:	00000706 	br	801a4 <alt_irq_handler+0xb8>
#else
        alt_irq[i].handler(alt_irq[i].context, i); 
#endif
        break;
      }
      mask <<= 1;
   80188:	e0bffe17 	ldw	r2,-8(fp)
   8018c:	1085883a 	add	r2,r2,r2
   80190:	e0bffe15 	stw	r2,-8(fp)
      i++;
   80194:	e0bffd17 	ldw	r2,-12(fp)
   80198:	10800044 	addi	r2,r2,1
   8019c:	e0bffd15 	stw	r2,-12(fp)

    } while (1);
   801a0:	003fdd06 	br	80118 <alt_irq_handler+0x2c>
  /*
   * Notify the operating system that interrupt processing is complete.
   */ 

  ALT_OS_INT_EXIT();
}
   801a4:	e037883a 	mov	sp,fp
   801a8:	dfc00117 	ldw	ra,4(sp)
   801ac:	df000017 	ldw	fp,0(sp)
   801b0:	dec00204 	addi	sp,sp,8
   801b4:	f800283a 	ret

Disassembly of section .text:

000801b8 <_start>:
#if (NIOS2_NUM_OF_SHADOW_REG_SETS == 0)    
    /*
     * Now that the caches are initialized, set up the stack pointer.
     * The value provided by the linker is assumed to be correctly aligned.
     */
    movhi sp, %hi(__alt_stack_pointer)
   801b8:	06c00434 	movhi	sp,16
    ori sp, sp, %lo(__alt_stack_pointer)
   801bc:	dec00014 	ori	sp,sp,0

    /* Set up the global pointer. */
    movhi gp, %hi(_gp)
   801c0:	06800274 	movhi	gp,9
    ori gp, gp, %lo(_gp)
   801c4:	d6b32d14 	ori	gp,gp,52404
 */
#ifndef ALT_SIM_OPTIMIZE
    /* Log that the BSS is about to be cleared. */
    ALT_LOG_PUTS(alt_log_msg_bss)

    movhi r2, %hi(__bss_start)
   801c8:	00800274 	movhi	r2,9
    ori r2, r2, %lo(__bss_start)
   801cc:	109a3a14 	ori	r2,r2,26856

    movhi r3, %hi(__bss_end)
   801d0:	00c00274 	movhi	r3,9
    ori r3, r3, %lo(__bss_end)
   801d4:	18daf714 	ori	r3,r3,27612

    beq r2, r3, 1f
   801d8:	10c00326 	beq	r2,r3,801e8 <_start+0x30>

0:
    stw zero, (r2)
   801dc:	10000015 	stw	zero,0(r2)
    addi r2, r2, 4
   801e0:	10800104 	addi	r2,r2,4
    bltu r2, r3, 0b
   801e4:	10fffd36 	bltu	r2,r3,801dc <_start+0x24>
     * section aren't defined until alt_load() has been called).
     */
    mov   et, zero
#endif

    call alt_load
   801e8:	008dc040 	call	8dc04 <alt_load>

    /* Log that alt_main is about to be called. */
    ALT_LOG_PUTS(alt_log_msg_alt_main)

    /* Call the C entry point. It should never return. */
    call alt_main
   801ec:	008de440 	call	8de44 <alt_main>

000801f0 <alt_after_alt_main>:

    /* Wait in infinite loop in case alt_main does return. */
alt_after_alt_main:
    br alt_after_alt_main
   801f0:	003fff06 	br	801f0 <alt_after_alt_main>

000801f4 <BCDto7Seg>:
#include "HEX.h"

int BCDto7Seg(int bcd)
{
   801f4:	defffb04 	addi	sp,sp,-20
   801f8:	dfc00415 	stw	ra,16(sp)
   801fc:	df000315 	stw	fp,12(sp)
   80200:	dc400215 	stw	r17,8(sp)
   80204:	dc000115 	stw	r16,4(sp)
   80208:	df000104 	addi	fp,sp,4
   8020c:	e13fff15 	stw	r4,-4(fp)
	return bcd%10
   80210:	e13fff17 	ldw	r4,-4(fp)
   80214:	01400284 	movi	r5,10
   80218:	00843600 	call	84360 <__modsi3>
   8021c:	1021883a 	mov	r16,r2
   80220:	e13fff17 	ldw	r4,-4(fp)
   80224:	0149c404 	movi	r5,10000
   80228:	00843600 	call	84360 <__modsi3>
   8022c:	1009883a 	mov	r4,r2
   80230:	0140fa04 	movi	r5,1000
   80234:	00843000 	call	84300 <__divsi3>
   80238:	1022913a 	slli	r17,r2,4
   8023c:	e13fff17 	ldw	r4,-4(fp)
   80240:	0140fa04 	movi	r5,1000
   80244:	00843600 	call	84360 <__modsi3>
   80248:	1009883a 	mov	r4,r2
   8024c:	01401904 	movi	r5,100
   80250:	00843000 	call	84300 <__divsi3>
   80254:	8885883a 	add	r2,r17,r2
   80258:	1022913a 	slli	r17,r2,4
   8025c:	e13fff17 	ldw	r4,-4(fp)
   80260:	01401904 	movi	r5,100
   80264:	00843600 	call	84360 <__modsi3>
   80268:	1009883a 	mov	r4,r2
   8026c:	01400284 	movi	r5,10
   80270:	00843000 	call	84300 <__divsi3>
   80274:	8885883a 	add	r2,r17,r2
   80278:	1004913a 	slli	r2,r2,4
   8027c:	8085883a 	add	r2,r16,r2
				+(((bcd%100)/10)*16)
				+(((bcd%1000)/100)*16*16)
				+(((bcd%10000)/1000)*16*16*16);
};
   80280:	e037883a 	mov	sp,fp
   80284:	dfc00317 	ldw	ra,12(sp)
   80288:	df000217 	ldw	fp,8(sp)
   8028c:	dc400117 	ldw	r17,4(sp)
   80290:	dc000017 	ldw	r16,0(sp)
   80294:	dec00404 	addi	sp,sp,16
   80298:	f800283a 	ret

0008029c <printBCDon7Seg>:

void printBCDon7Seg(int bcd)
{
   8029c:	defffd04 	addi	sp,sp,-12
   802a0:	dfc00215 	stw	ra,8(sp)
   802a4:	df000115 	stw	fp,4(sp)
   802a8:	df000104 	addi	fp,sp,4
   802ac:	e13fff15 	stw	r4,-4(fp)
	// Update HEX-LEDs
	IOWR_16DIRECT(MM_BUS_SEVEN_SEG_FOUR_DIGIT_0_BASE, 2, BCDto7Seg(bcd));
   802b0:	e13fff17 	ldw	r4,-4(fp)
   802b4:	00801f40 	call	801f4 <BCDto7Seg>
   802b8:	1007883a 	mov	r3,r2
   802bc:	00800434 	movhi	r2,16
   802c0:	10850084 	addi	r2,r2,5122
   802c4:	10c0002d 	sthio	r3,0(r2)
}
   802c8:	e037883a 	mov	sp,fp
   802cc:	dfc00117 	ldw	ra,4(sp)
   802d0:	df000017 	ldw	fp,0(sp)
   802d4:	dec00204 	addi	sp,sp,8
   802d8:	f800283a 	ret

000802dc <writeToLCD>:
#include "LCD.h"

void writeToLCD(char* str, char line)
{
   802dc:	defffb04 	addi	sp,sp,-20
   802e0:	dfc00415 	stw	ra,16(sp)
   802e4:	df000315 	stw	fp,12(sp)
   802e8:	df000304 	addi	fp,sp,12
   802ec:	e13ffe15 	stw	r4,-8(fp)
   802f0:	e17fff05 	stb	r5,-4(fp)
	FILE* fp = fopen(LCD_0_NAME,"w");
   802f4:	01000274 	movhi	r4,9
   802f8:	2109da04 	addi	r4,r4,10088
   802fc:	01400274 	movhi	r5,9
   80300:	2949dd04 	addi	r5,r5,10100
   80304:	00851fc0 	call	851fc <fopen>
   80308:	e0bffd15 	stw	r2,-12(fp)
	if(fp != NULL)
   8030c:	e0bffd17 	ldw	r2,-12(fp)
   80310:	1005003a 	cmpeq	r2,r2,zero
   80314:	1000111e 	bne	r2,zero,8035c <writeToLCD+0x80>
	{
		fprintf(fp,SET_POS(%u,1),line);	// move cursor to
   80318:	e1bfff07 	ldb	r6,-4(fp)
   8031c:	e13ffd17 	ldw	r4,-12(fp)
   80320:	01400274 	movhi	r5,9
   80324:	2949de04 	addi	r5,r5,10104
   80328:	00852180 	call	85218 <fprintf>
		fprintf(fp,CLR_LINE());			// clear the line
   8032c:	01000274 	movhi	r4,9
   80330:	2109e004 	addi	r4,r4,10112
   80334:	01400044 	movi	r5,1
   80338:	018000c4 	movi	r6,3
   8033c:	e1fffd17 	ldw	r7,-12(fp)
   80340:	0085db80 	call	85db8 <fwrite>
		fprintf(fp,str);				// write the string
   80344:	e13ffd17 	ldw	r4,-12(fp)
   80348:	e17ffe17 	ldw	r5,-8(fp)
   8034c:	00852180 	call	85218 <fprintf>
		fclose(fp);
   80350:	e13ffd17 	ldw	r4,-12(fp)
   80354:	0084bd00 	call	84bd0 <fclose>
   80358:	00000706 	br	80378 <writeToLCD+0x9c>
	} else {
		printf("Error using %s! Trying to write \"%s\" to line %u\n",LCD_0_NAME,str,line);
   8035c:	e1ffff07 	ldb	r7,-4(fp)
   80360:	01000274 	movhi	r4,9
   80364:	2109e104 	addi	r4,r4,10116
   80368:	01400274 	movhi	r5,9
   8036c:	2949da04 	addi	r5,r5,10088
   80370:	e1bffe17 	ldw	r6,-8(fp)
   80374:	00867dc0 	call	867dc <printf>
	}
}
   80378:	e037883a 	mov	sp,fp
   8037c:	dfc00117 	ldw	ra,4(sp)
   80380:	df000017 	ldw	fp,0(sp)
   80384:	dec00204 	addi	sp,sp,8
   80388:	f800283a 	ret

0008038c <updateKeyboardKeys>:
#include "keyboard.h"

unsigned char updateKeyboardKeys(alt_up_ps2_dev *PS2_dev, unsigned char* keys, char bufferSize)
{
   8038c:	defff904 	addi	sp,sp,-28
   80390:	dfc00615 	stw	ra,24(sp)
   80394:	df000515 	stw	fp,20(sp)
   80398:	df000504 	addi	fp,sp,20
   8039c:	e13ffc15 	stw	r4,-16(fp)
   803a0:	e17ffd15 	stw	r5,-12(fp)
   803a4:	e1bffe05 	stb	r6,-8(fp)
	unsigned char PS2_original_data, PS2_ascii_data, i=0;
   803a8:	e03ffb05 	stb	zero,-20(fp)
	while(alt_up_ps2_read_data_byte (PS2_dev, &PS2_original_data) == 0)
   803ac:	00006306 	br	8053c <updateKeyboardKeys+0x1b0>
	{
		if(PS2_original_data == 0xF0) // If a key was released
   803b0:	e0bffb83 	ldbu	r2,-18(fp)
   803b4:	10803fcc 	andi	r2,r2,255
   803b8:	10803c18 	cmpnei	r2,r2,240
   803bc:	1000391e 	bne	r2,zero,804a4 <updateKeyboardKeys+0x118>
		{
			// Getting respond on which char is released
			while(alt_up_ps2_read_data_byte (PS2_dev, &PS2_original_data) != 0) {}
   803c0:	e17ffb84 	addi	r5,fp,-18
   803c4:	e13ffc17 	ldw	r4,-16(fp)
   803c8:	00911800 	call	91180 <alt_up_ps2_read_data_byte>
   803cc:	1004c03a 	cmpne	r2,r2,zero
   803d0:	103ffb1e 	bne	r2,zero,803c0 <updateKeyboardKeys+0x34>
			PS2_ascii_data = convertKeyboardToAscii(PS2_original_data);
   803d4:	e0bffb83 	ldbu	r2,-18(fp)
   803d8:	11003fcc 	andi	r4,r2,255
   803dc:	00806dc0 	call	806dc <convertKeyboardToAscii>
   803e0:	e0bffb45 	stb	r2,-19(fp)
			if(PS2_ascii_data != NULL_TERMINATE) // Not supported key - don't care!
   803e4:	e0bffb43 	ldbu	r2,-19(fp)
   803e8:	1005003a 	cmpeq	r2,r2,zero
   803ec:	1000531e 	bne	r2,zero,8053c <updateKeyboardKeys+0x1b0>
			{
				i = 0;
   803f0:	e03ffb05 	stb	zero,-20(fp)
				while(*(keys+i) != PS2_ascii_data && *(keys+i) != NULL_TERMINATE)
   803f4:	00000306 	br	80404 <updateKeyboardKeys+0x78>
				// Find key in array. If not there, null terminate is reached there is
				// nothing more interesting in array since the last also will be null terminate
				{
					i++;
   803f8:	e0bffb03 	ldbu	r2,-20(fp)
   803fc:	10800044 	addi	r2,r2,1
   80400:	e0bffb05 	stb	r2,-20(fp)
			while(alt_up_ps2_read_data_byte (PS2_dev, &PS2_original_data) != 0) {}
			PS2_ascii_data = convertKeyboardToAscii(PS2_original_data);
			if(PS2_ascii_data != NULL_TERMINATE) // Not supported key - don't care!
			{
				i = 0;
				while(*(keys+i) != PS2_ascii_data && *(keys+i) != NULL_TERMINATE)
   80404:	e0bffb03 	ldbu	r2,-20(fp)
   80408:	1007883a 	mov	r3,r2
   8040c:	e0bffd17 	ldw	r2,-12(fp)
   80410:	1885883a 	add	r2,r3,r2
   80414:	10800003 	ldbu	r2,0(r2)
   80418:	10c03fcc 	andi	r3,r2,255
   8041c:	e0bffb43 	ldbu	r2,-19(fp)
   80420:	18801726 	beq	r3,r2,80480 <updateKeyboardKeys+0xf4>
   80424:	e0bffb03 	ldbu	r2,-20(fp)
   80428:	1007883a 	mov	r3,r2
   8042c:	e0bffd17 	ldw	r2,-12(fp)
   80430:	1885883a 	add	r2,r3,r2
   80434:	10800003 	ldbu	r2,0(r2)
   80438:	10803fcc 	andi	r2,r2,255
   8043c:	1004c03a 	cmpne	r2,r2,zero
   80440:	103fed1e 	bne	r2,zero,803f8 <updateKeyboardKeys+0x6c>
				// Find key in array. If not there, null terminate is reached there is
				// nothing more interesting in array since the last also will be null terminate
				{
					i++;
				}
				while(*(keys+i) != NULL_TERMINATE)
   80444:	00000e06 	br	80480 <updateKeyboardKeys+0xf4>
				// Shift keys until we get to null terminate (end of array)
				{
					*(keys+i) = *(keys+i+1);
   80448:	e0bffb03 	ldbu	r2,-20(fp)
   8044c:	1007883a 	mov	r3,r2
   80450:	e0bffd17 	ldw	r2,-12(fp)
   80454:	1889883a 	add	r4,r3,r2
   80458:	e0bffb03 	ldbu	r2,-20(fp)
   8045c:	1007883a 	mov	r3,r2
   80460:	e0bffd17 	ldw	r2,-12(fp)
   80464:	1885883a 	add	r2,r3,r2
   80468:	10800044 	addi	r2,r2,1
   8046c:	10800003 	ldbu	r2,0(r2)
   80470:	20800005 	stb	r2,0(r4)
					i++;
   80474:	e0bffb03 	ldbu	r2,-20(fp)
   80478:	10800044 	addi	r2,r2,1
   8047c:	e0bffb05 	stb	r2,-20(fp)
				// Find key in array. If not there, null terminate is reached there is
				// nothing more interesting in array since the last also will be null terminate
				{
					i++;
				}
				while(*(keys+i) != NULL_TERMINATE)
   80480:	e0bffb03 	ldbu	r2,-20(fp)
   80484:	1007883a 	mov	r3,r2
   80488:	e0bffd17 	ldw	r2,-12(fp)
   8048c:	1885883a 	add	r2,r3,r2
   80490:	10800003 	ldbu	r2,0(r2)
   80494:	10803fcc 	andi	r2,r2,255
   80498:	1004c03a 	cmpne	r2,r2,zero
   8049c:	103fea1e 	bne	r2,zero,80448 <updateKeyboardKeys+0xbc>
   804a0:	00002606 	br	8053c <updateKeyboardKeys+0x1b0>
				// We could return here, but there might be more chars in the buffer!
			}
		}
		else
		{
			PS2_ascii_data = convertKeyboardToAscii(PS2_original_data);
   804a4:	e0bffb83 	ldbu	r2,-18(fp)
   804a8:	11003fcc 	andi	r4,r2,255
   804ac:	00806dc0 	call	806dc <convertKeyboardToAscii>
   804b0:	e0bffb45 	stb	r2,-19(fp)
			if(PS2_ascii_data != NULL_TERMINATE) // Not supported key - don't care!
   804b4:	e0bffb43 	ldbu	r2,-19(fp)
   804b8:	1005003a 	cmpeq	r2,r2,zero
   804bc:	10001f1e 	bne	r2,zero,8053c <updateKeyboardKeys+0x1b0>
			{
				for(i = 0; i < bufferSize; i++)
   804c0:	e03ffb05 	stb	zero,-20(fp)
   804c4:	00001a06 	br	80530 <updateKeyboardKeys+0x1a4>
				{
					if(*(keys+i) == PS2_ascii_data)
   804c8:	e0bffb03 	ldbu	r2,-20(fp)
   804cc:	1007883a 	mov	r3,r2
   804d0:	e0bffd17 	ldw	r2,-12(fp)
   804d4:	1885883a 	add	r2,r3,r2
   804d8:	10800003 	ldbu	r2,0(r2)
   804dc:	10c03fcc 	andi	r3,r2,255
   804e0:	e0bffb43 	ldbu	r2,-19(fp)
   804e4:	18801526 	beq	r3,r2,8053c <updateKeyboardKeys+0x1b0>
						break; // We don't need a new one, since it's already in the array
					else if(*(keys+i) == NULL_TERMINATE)
   804e8:	e0bffb03 	ldbu	r2,-20(fp)
   804ec:	1007883a 	mov	r3,r2
   804f0:	e0bffd17 	ldw	r2,-12(fp)
   804f4:	1885883a 	add	r2,r3,r2
   804f8:	10800003 	ldbu	r2,0(r2)
   804fc:	10803fcc 	andi	r2,r2,255
   80500:	1004c03a 	cmpne	r2,r2,zero
   80504:	1000071e 	bne	r2,zero,80524 <updateKeyboardKeys+0x198>
					{
						// Put key into last available place
						*(keys+i) = PS2_ascii_data;
   80508:	e0bffb03 	ldbu	r2,-20(fp)
   8050c:	1007883a 	mov	r3,r2
   80510:	e0bffd17 	ldw	r2,-12(fp)
   80514:	1887883a 	add	r3,r3,r2
   80518:	e0bffb43 	ldbu	r2,-19(fp)
   8051c:	18800005 	stb	r2,0(r3)
						// We could return here, but there might be more chars in the buffer!
						break;
   80520:	00000606 	br	8053c <updateKeyboardKeys+0x1b0>
		else
		{
			PS2_ascii_data = convertKeyboardToAscii(PS2_original_data);
			if(PS2_ascii_data != NULL_TERMINATE) // Not supported key - don't care!
			{
				for(i = 0; i < bufferSize; i++)
   80524:	e0bffb03 	ldbu	r2,-20(fp)
   80528:	10800044 	addi	r2,r2,1
   8052c:	e0bffb05 	stb	r2,-20(fp)
   80530:	e0fffb03 	ldbu	r3,-20(fp)
   80534:	e0bffe07 	ldb	r2,-8(fp)
   80538:	18bfe316 	blt	r3,r2,804c8 <updateKeyboardKeys+0x13c>
#include "keyboard.h"

unsigned char updateKeyboardKeys(alt_up_ps2_dev *PS2_dev, unsigned char* keys, char bufferSize)
{
	unsigned char PS2_original_data, PS2_ascii_data, i=0;
	while(alt_up_ps2_read_data_byte (PS2_dev, &PS2_original_data) == 0)
   8053c:	e17ffb84 	addi	r5,fp,-18
   80540:	e13ffc17 	ldw	r4,-16(fp)
   80544:	00911800 	call	91180 <alt_up_ps2_read_data_byte>
   80548:	1005003a 	cmpeq	r2,r2,zero
   8054c:	103f981e 	bne	r2,zero,803b0 <updateKeyboardKeys+0x24>
				}
			}
		}
	}

	for(i = 0; i < bufferSize; i++)
   80550:	e03ffb05 	stb	zero,-20(fp)
   80554:	00001406 	br	805a8 <updateKeyboardKeys+0x21c>
	{
		if(*(keys+i+1) == NULL_TERMINATE)
   80558:	e0bffb03 	ldbu	r2,-20(fp)
   8055c:	1007883a 	mov	r3,r2
   80560:	e0bffd17 	ldw	r2,-12(fp)
   80564:	1885883a 	add	r2,r3,r2
   80568:	10800044 	addi	r2,r2,1
   8056c:	10800003 	ldbu	r2,0(r2)
   80570:	10803fcc 	andi	r2,r2,255
   80574:	1004c03a 	cmpne	r2,r2,zero
   80578:	1000081e 	bne	r2,zero,8059c <updateKeyboardKeys+0x210>
		{
			// Next char is null terminate, so the current is the last
			// Note: Current might also be null terminate (if first)
			return *(keys+i);
   8057c:	e0bffb03 	ldbu	r2,-20(fp)
   80580:	1007883a 	mov	r3,r2
   80584:	e0bffd17 	ldw	r2,-12(fp)
   80588:	1885883a 	add	r2,r3,r2
   8058c:	10800003 	ldbu	r2,0(r2)
   80590:	10803fcc 	andi	r2,r2,255
   80594:	e0bfff15 	stw	r2,-4(fp)
   80598:	00000706 	br	805b8 <updateKeyboardKeys+0x22c>
				}
			}
		}
	}

	for(i = 0; i < bufferSize; i++)
   8059c:	e0bffb03 	ldbu	r2,-20(fp)
   805a0:	10800044 	addi	r2,r2,1
   805a4:	e0bffb05 	stb	r2,-20(fp)
   805a8:	e0fffb03 	ldbu	r3,-20(fp)
   805ac:	e0bffe07 	ldb	r2,-8(fp)
   805b0:	18bfe916 	blt	r3,r2,80558 <updateKeyboardKeys+0x1cc>
			// Next char is null terminate, so the current is the last
			// Note: Current might also be null terminate (if first)
			return *(keys+i);
		}
	}
	return 0; // We should never get here!
   805b4:	e03fff15 	stw	zero,-4(fp)
   805b8:	e0bfff17 	ldw	r2,-4(fp)
}
   805bc:	e037883a 	mov	sp,fp
   805c0:	dfc00117 	ldw	ra,4(sp)
   805c4:	df000017 	ldw	fp,0(sp)
   805c8:	dec00204 	addi	sp,sp,8
   805cc:	f800283a 	ret

000805d0 <keyboardKeyToHertz>:

int keyboardKeyToHertz(unsigned char key)
{
   805d0:	defffb04 	addi	sp,sp,-20
   805d4:	dfc00415 	stw	ra,16(sp)
   805d8:	df000315 	stw	fp,12(sp)
   805dc:	df000304 	addi	fp,sp,12
   805e0:	e13ffd05 	stb	r4,-12(fp)
	switch(key)
   805e4:	e0bffd03 	ldbu	r2,-12(fp)
   805e8:	10bfe7c4 	addi	r2,r2,-97
   805ec:	e0bfff15 	stw	r2,-4(fp)
   805f0:	e0ffff17 	ldw	r3,-4(fp)
   805f4:	188001e8 	cmpgeui	r2,r3,7
   805f8:	1000251e 	bne	r2,zero,80690 <keyboardKeyToHertz+0xc0>
   805fc:	e13fff17 	ldw	r4,-4(fp)
   80600:	e13fff17 	ldw	r4,-4(fp)
   80604:	2105883a 	add	r2,r4,r4
   80608:	1087883a 	add	r3,r2,r2
   8060c:	00800234 	movhi	r2,8
   80610:	10818804 	addi	r2,r2,1568
   80614:	1885883a 	add	r2,r3,r2
   80618:	10800017 	ldw	r2,0(r2)
   8061c:	1000683a 	jmp	r2
   80620:	0008063c 	xorhi	zero,zero,8216
   80624:	00080648 	cmpgei	zero,zero,8217
   80628:	00080654 	movui	zero,8217
   8062c:	00080660 	cmpeqi	zero,zero,8217
   80630:	0008066c 	andhi	zero,zero,8217
   80634:	00080678 	rdprs	zero,zero,8217
   80638:	00080684 	movi	zero,8218
	{
		/* LETTERS */
		case 'a':
			return 440;
   8063c:	00806e04 	movi	r2,440
   80640:	e0bffe15 	stw	r2,-8(fp)
   80644:	00001f06 	br	806c4 <keyboardKeyToHertz+0xf4>
		case 'b':
			return 494;
   80648:	00c07b84 	movi	r3,494
   8064c:	e0fffe15 	stw	r3,-8(fp)
   80650:	00001c06 	br	806c4 <keyboardKeyToHertz+0xf4>
		case 'c':
			return 262;
   80654:	01004184 	movi	r4,262
   80658:	e13ffe15 	stw	r4,-8(fp)
   8065c:	00001906 	br	806c4 <keyboardKeyToHertz+0xf4>
		case 'd':
			return 294;
   80660:	00804984 	movi	r2,294
   80664:	e0bffe15 	stw	r2,-8(fp)
   80668:	00001606 	br	806c4 <keyboardKeyToHertz+0xf4>
		case 'e':
			return 330;
   8066c:	00c05284 	movi	r3,330
   80670:	e0fffe15 	stw	r3,-8(fp)
   80674:	00001306 	br	806c4 <keyboardKeyToHertz+0xf4>
		case 'f':
			return 349;
   80678:	01005744 	movi	r4,349
   8067c:	e13ffe15 	stw	r4,-8(fp)
   80680:	00001006 	br	806c4 <keyboardKeyToHertz+0xf4>
		case 'g':
			return 392;
   80684:	00806204 	movi	r2,392
   80688:	e0bffe15 	stw	r2,-8(fp)
   8068c:	00000d06 	br	806c4 <keyboardKeyToHertz+0xf4>
	}

	/* NUMBERS */
	if(key >= '1' && key <= '9')
   80690:	e0bffd03 	ldbu	r2,-12(fp)
   80694:	10800c70 	cmpltui	r2,r2,49
   80698:	1000091e 	bne	r2,zero,806c0 <keyboardKeyToHertz+0xf0>
   8069c:	e0bffd03 	ldbu	r2,-12(fp)
   806a0:	10800ea8 	cmpgeui	r2,r2,58
   806a4:	1000061e 	bne	r2,zero,806c0 <keyboardKeyToHertz+0xf0>
		return (key-48)*100; // Ex: if 4 (ASCII: 52): (52-48)*100 = 400
   806a8:	e13ffd03 	ldbu	r4,-12(fp)
   806ac:	01401904 	movi	r5,100
   806b0:	00843d00 	call	843d0 <__mulsi3>
   806b4:	10bb5004 	addi	r2,r2,-4800
   806b8:	e0bffe15 	stw	r2,-8(fp)
   806bc:	00000106 	br	806c4 <keyboardKeyToHertz+0xf4>
	else
		return 0;
   806c0:	e03ffe15 	stw	zero,-8(fp)
   806c4:	e0bffe17 	ldw	r2,-8(fp)
}
   806c8:	e037883a 	mov	sp,fp
   806cc:	dfc00117 	ldw	ra,4(sp)
   806d0:	df000017 	ldw	fp,0(sp)
   806d4:	dec00204 	addi	sp,sp,8
   806d8:	f800283a 	ret

000806dc <convertKeyboardToAscii>:

unsigned char convertKeyboardToAscii(unsigned char orig_key)
{
   806dc:	defffc04 	addi	sp,sp,-16
   806e0:	df000315 	stw	fp,12(sp)
   806e4:	df000304 	addi	fp,sp,12
   806e8:	e13ffd05 	stb	r4,-12(fp)
	switch(orig_key)
   806ec:	e0bffd03 	ldbu	r2,-12(fp)
   806f0:	10bffa84 	addi	r2,r2,-22
   806f4:	e0bfff15 	stw	r2,-4(fp)
   806f8:	e0ffff17 	ldw	r3,-4(fp)
   806fc:	18800c68 	cmpgeui	r2,r3,49
   80700:	10006d1e 	bne	r2,zero,808b8 <convertKeyboardToAscii+0x1dc>
   80704:	e13fff17 	ldw	r4,-4(fp)
   80708:	e13fff17 	ldw	r4,-4(fp)
   8070c:	2105883a 	add	r2,r4,r4
   80710:	1087883a 	add	r3,r2,r2
   80714:	00800234 	movhi	r2,8
   80718:	1081ca04 	addi	r2,r2,1832
   8071c:	1885883a 	add	r2,r3,r2
   80720:	10800017 	ldw	r2,0(r2)
   80724:	1000683a 	jmp	r2
   80728:	0008084c 	andi	zero,zero,8225
   8072c:	000808b8 	rdprs	zero,zero,8226
   80730:	000808b8 	rdprs	zero,zero,8226
   80734:	000808b8 	rdprs	zero,zero,8226
   80738:	000808b8 	rdprs	zero,zero,8226
   8073c:	000808b8 	rdprs	zero,zero,8226
   80740:	000807ec 	andhi	zero,zero,8223
   80744:	000808b8 	rdprs	zero,zero,8226
   80748:	00080858 	cmpnei	zero,zero,8225
   8074c:	000808b8 	rdprs	zero,zero,8226
   80750:	000808b8 	rdprs	zero,zero,8226
   80754:	00080804 	movi	zero,8224
   80758:	000808b8 	rdprs	zero,zero,8226
   8075c:	00080810 	cmplti	zero,zero,8224
   80760:	0008081c 	xori	zero,zero,8224
   80764:	00080870 	cmpltui	zero,zero,8225
   80768:	00080864 	muli	zero,zero,8225
   8076c:	000808b8 	rdprs	zero,zero,8226
   80770:	000808b8 	rdprs	zero,zero,8226
   80774:	000808b8 	rdprs	zero,zero,8226
   80778:	000808b8 	rdprs	zero,zero,8226
   8077c:	00080828 	cmpgeui	zero,zero,8224
   80780:	000808b8 	rdprs	zero,zero,8226
   80784:	000808b8 	rdprs	zero,zero,8226
   80788:	0008087c 	xorhi	zero,zero,8225
   8078c:	000808b8 	rdprs	zero,zero,8226
   80790:	000808b8 	rdprs	zero,zero,8226
   80794:	000808b8 	rdprs	zero,zero,8226
   80798:	000807f8 	rdprs	zero,zero,8223
   8079c:	000808b8 	rdprs	zero,zero,8226
   807a0:	00080834 	movhi	zero,8224
   807a4:	000808b8 	rdprs	zero,zero,8226
   807a8:	00080888 	cmpgei	zero,zero,8226
   807ac:	000808b8 	rdprs	zero,zero,8226
   807b0:	000808b8 	rdprs	zero,zero,8226
   807b4:	000808b8 	rdprs	zero,zero,8226
   807b8:	000808b8 	rdprs	zero,zero,8226
   807bc:	000808b8 	rdprs	zero,zero,8226
   807c0:	000808b8 	rdprs	zero,zero,8226
   807c4:	00080894 	movui	zero,8226
   807c8:	000808a0 	cmpeqi	zero,zero,8226
   807cc:	000808b8 	rdprs	zero,zero,8226
   807d0:	000808b8 	rdprs	zero,zero,8226
   807d4:	000808b8 	rdprs	zero,zero,8226
   807d8:	000808b8 	rdprs	zero,zero,8226
   807dc:	000808b8 	rdprs	zero,zero,8226
   807e0:	000808b8 	rdprs	zero,zero,8226
   807e4:	00080840 	call	8084 <__reset-0x77f7c>
   807e8:	000808ac 	andhi	zero,zero,8226
	{
		/* LETTERS */
		case 0x1C:
			return 'a';
   807ec:	00801844 	movi	r2,97
   807f0:	e0bffe15 	stw	r2,-8(fp)
   807f4:	00003106 	br	808bc <convertKeyboardToAscii+0x1e0>
		case 0x32:
			return 'b';
   807f8:	00c01884 	movi	r3,98
   807fc:	e0fffe15 	stw	r3,-8(fp)
   80800:	00002e06 	br	808bc <convertKeyboardToAscii+0x1e0>
		case 0x21:
			return 'c';
   80804:	010018c4 	movi	r4,99
   80808:	e13ffe15 	stw	r4,-8(fp)
   8080c:	00002b06 	br	808bc <convertKeyboardToAscii+0x1e0>
		case 0x23:
			return 'd';
   80810:	00801904 	movi	r2,100
   80814:	e0bffe15 	stw	r2,-8(fp)
   80818:	00002806 	br	808bc <convertKeyboardToAscii+0x1e0>
		case 0x24:
			return 'e';
   8081c:	00c01944 	movi	r3,101
   80820:	e0fffe15 	stw	r3,-8(fp)
   80824:	00002506 	br	808bc <convertKeyboardToAscii+0x1e0>
		case 0x2B:
			return 'f';
   80828:	01001984 	movi	r4,102
   8082c:	e13ffe15 	stw	r4,-8(fp)
   80830:	00002206 	br	808bc <convertKeyboardToAscii+0x1e0>
		case 0x34:
			return 'g';
   80834:	008019c4 	movi	r2,103
   80838:	e0bffe15 	stw	r2,-8(fp)
   8083c:	00001f06 	br	808bc <convertKeyboardToAscii+0x1e0>

		/* NUMBERS */
		case 0x45:
			return '0';
   80840:	00c00c04 	movi	r3,48
   80844:	e0fffe15 	stw	r3,-8(fp)
   80848:	00001c06 	br	808bc <convertKeyboardToAscii+0x1e0>
		case 0x16:
			return '1';
   8084c:	01000c44 	movi	r4,49
   80850:	e13ffe15 	stw	r4,-8(fp)
   80854:	00001906 	br	808bc <convertKeyboardToAscii+0x1e0>
		case 0x1E:
			return '2';
   80858:	00800c84 	movi	r2,50
   8085c:	e0bffe15 	stw	r2,-8(fp)
   80860:	00001606 	br	808bc <convertKeyboardToAscii+0x1e0>
		case 0x26:
			return '3';
   80864:	00c00cc4 	movi	r3,51
   80868:	e0fffe15 	stw	r3,-8(fp)
   8086c:	00001306 	br	808bc <convertKeyboardToAscii+0x1e0>
		case 0x25:
			return '4';
   80870:	01000d04 	movi	r4,52
   80874:	e13ffe15 	stw	r4,-8(fp)
   80878:	00001006 	br	808bc <convertKeyboardToAscii+0x1e0>
		case 0x2E:
			return '5';
   8087c:	00800d44 	movi	r2,53
   80880:	e0bffe15 	stw	r2,-8(fp)
   80884:	00000d06 	br	808bc <convertKeyboardToAscii+0x1e0>
		case 0x36:
			return '6';
   80888:	00c00d84 	movi	r3,54
   8088c:	e0fffe15 	stw	r3,-8(fp)
   80890:	00000a06 	br	808bc <convertKeyboardToAscii+0x1e0>
		case 0x3D:
			return '7';
   80894:	01000dc4 	movi	r4,55
   80898:	e13ffe15 	stw	r4,-8(fp)
   8089c:	00000706 	br	808bc <convertKeyboardToAscii+0x1e0>
		case 0x3E:
			return '8';
   808a0:	00800e04 	movi	r2,56
   808a4:	e0bffe15 	stw	r2,-8(fp)
   808a8:	00000406 	br	808bc <convertKeyboardToAscii+0x1e0>
		case 0x46:
			return '9';
   808ac:	00c00e44 	movi	r3,57
   808b0:	e0fffe15 	stw	r3,-8(fp)
   808b4:	00000106 	br	808bc <convertKeyboardToAscii+0x1e0>
	}

	return NULL_TERMINATE;
   808b8:	e03ffe15 	stw	zero,-8(fp)
   808bc:	e0bffe17 	ldw	r2,-8(fp)
}
   808c0:	e037883a 	mov	sp,fp
   808c4:	df000017 	ldw	fp,0(sp)
   808c8:	dec00104 	addi	sp,sp,4
   808cc:	f800283a 	ret

000808d0 <updateKeyKeys>:
#include "keys.h"

void updateKeyKeys(char* keys_char)
{
   808d0:	defff804 	addi	sp,sp,-32
   808d4:	df000715 	stw	fp,28(sp)
   808d8:	df000704 	addi	fp,sp,28
   808dc:	e13ffa15 	stw	r4,-24(fp)
	unsigned char keys_binary = ~IORD_ALTERA_AVALON_PIO_DATA(PIO_INPUT_KEY_BASE);
   808e0:	00800434 	movhi	r2,16
   808e4:	10859404 	addi	r2,r2,5712
   808e8:	10800037 	ldwio	r2,0(r2)
   808ec:	0084303a 	nor	r2,zero,r2
   808f0:	e0bff905 	stb	r2,-28(fp)
	keys_char[0] = ((keys_binary & 1) == 1 ? '1' : ' ');
   808f4:	e0bff903 	ldbu	r2,-28(fp)
   808f8:	1080004c 	andi	r2,r2,1
   808fc:	10803fcc 	andi	r2,r2,255
   80900:	1005003a 	cmpeq	r2,r2,zero
   80904:	1000031e 	bne	r2,zero,80914 <updateKeyKeys+0x44>
   80908:	00800c44 	movi	r2,49
   8090c:	e0bfff05 	stb	r2,-4(fp)
   80910:	00000206 	br	8091c <updateKeyKeys+0x4c>
   80914:	00c00804 	movi	r3,32
   80918:	e0ffff05 	stb	r3,-4(fp)
   8091c:	e0bffa17 	ldw	r2,-24(fp)
   80920:	e0ffff03 	ldbu	r3,-4(fp)
   80924:	10c00005 	stb	r3,0(r2)
	keys_char[1] = ((keys_binary & 2) == 2 ? '2' : ' ');
   80928:	e0bffa17 	ldw	r2,-24(fp)
   8092c:	10800044 	addi	r2,r2,1
   80930:	e0bffe15 	stw	r2,-8(fp)
   80934:	e0bff903 	ldbu	r2,-28(fp)
   80938:	1080008c 	andi	r2,r2,2
   8093c:	1005003a 	cmpeq	r2,r2,zero
   80940:	1000031e 	bne	r2,zero,80950 <updateKeyKeys+0x80>
   80944:	00800c84 	movi	r2,50
   80948:	e0bffd05 	stb	r2,-12(fp)
   8094c:	00000206 	br	80958 <updateKeyKeys+0x88>
   80950:	00c00804 	movi	r3,32
   80954:	e0fffd05 	stb	r3,-12(fp)
   80958:	e0bffd03 	ldbu	r2,-12(fp)
   8095c:	e0fffe17 	ldw	r3,-8(fp)
   80960:	18800005 	stb	r2,0(r3)
	keys_char[2] = ((keys_binary & 4) == 4 ? '3' : ' ');
   80964:	e0bffa17 	ldw	r2,-24(fp)
   80968:	10800084 	addi	r2,r2,2
   8096c:	e0bffc15 	stw	r2,-16(fp)
   80970:	e0bff903 	ldbu	r2,-28(fp)
   80974:	1080010c 	andi	r2,r2,4
   80978:	1005003a 	cmpeq	r2,r2,zero
   8097c:	1000031e 	bne	r2,zero,8098c <updateKeyKeys+0xbc>
   80980:	00800cc4 	movi	r2,51
   80984:	e0bffb05 	stb	r2,-20(fp)
   80988:	00000206 	br	80994 <updateKeyKeys+0xc4>
   8098c:	00c00804 	movi	r3,32
   80990:	e0fffb05 	stb	r3,-20(fp)
   80994:	e0bffb03 	ldbu	r2,-20(fp)
   80998:	e0fffc17 	ldw	r3,-16(fp)
   8099c:	18800005 	stb	r2,0(r3)
	keys_char[3] = NULL_TERMINATE;
   809a0:	e0bffa17 	ldw	r2,-24(fp)
   809a4:	108000c4 	addi	r2,r2,3
   809a8:	10000005 	stb	zero,0(r2)
}
   809ac:	e037883a 	mov	sp,fp
   809b0:	df000017 	ldw	fp,0(sp)
   809b4:	dec00104 	addi	sp,sp,4
   809b8:	f800283a 	ret

000809bc <initCodecAsMaster>:
#define SOUND_HERTZ 48000
#define MAX_CODEC_SIZE 16777216
#define HALF_MAX_CODEC_SIZE (MAX_CODEC_SIZE/2)
#define PI 3.14159265

void initCodecAsMaster(void){
   809bc:	defffc04 	addi	sp,sp,-16
   809c0:	dfc00315 	stw	ra,12(sp)
   809c4:	df000215 	stw	fp,8(sp)
   809c8:	df000204 	addi	fp,sp,8
	int err = 0;
   809cc:	e03fff15 	stw	zero,-4(fp)
	alt_up_av_config_dev* audio_dev = alt_up_av_config_open_dev(AUDIO_AND_VIDEO_CONFIG_0_NAME);
   809d0:	01000274 	movhi	r4,9
   809d4:	2109ee04 	addi	r4,r4,10168
   809d8:	00905500 	call	90550 <alt_up_av_config_open_dev>
   809dc:	e0bffe15 	stw	r2,-8(fp)
	err = alt_up_av_config_write_audio_cfg_register(audio_dev, 0x00, 0x17); // Left line-in 0dB attn, Mute disable
   809e0:	e13ffe17 	ldw	r4,-8(fp)
   809e4:	000b883a 	mov	r5,zero
   809e8:	018005c4 	movi	r6,23
   809ec:	00907e40 	call	907e4 <alt_up_av_config_write_audio_cfg_register>
   809f0:	e0bfff15 	stw	r2,-4(fp)
	err = alt_up_av_config_write_audio_cfg_register(audio_dev, 0x01, 0x17); // Right line-in 0dB attn, Mute disable
   809f4:	e13ffe17 	ldw	r4,-8(fp)
   809f8:	01400044 	movi	r5,1
   809fc:	018005c4 	movi	r6,23
   80a00:	00907e40 	call	907e4 <alt_up_av_config_write_audio_cfg_register>
   80a04:	e0bfff15 	stw	r2,-4(fp)
	err = alt_up_av_config_write_audio_cfg_register(audio_dev, 0x02, 0x79);
   80a08:	e13ffe17 	ldw	r4,-8(fp)
   80a0c:	01400084 	movi	r5,2
   80a10:	01801e44 	movi	r6,121
   80a14:	00907e40 	call	907e4 <alt_up_av_config_write_audio_cfg_register>
   80a18:	e0bfff15 	stw	r2,-4(fp)
	err = alt_up_av_config_write_audio_cfg_register(audio_dev, 0x03, 0x79);
   80a1c:	e13ffe17 	ldw	r4,-8(fp)
   80a20:	014000c4 	movi	r5,3
   80a24:	01801e44 	movi	r6,121
   80a28:	00907e40 	call	907e4 <alt_up_av_config_write_audio_cfg_register>
   80a2c:	e0bfff15 	stw	r2,-4(fp)
	err = alt_up_av_config_write_audio_cfg_register(audio_dev, 0x04, 0x12);
   80a30:	e13ffe17 	ldw	r4,-8(fp)
   80a34:	01400104 	movi	r5,4
   80a38:	01800484 	movi	r6,18
   80a3c:	00907e40 	call	907e4 <alt_up_av_config_write_audio_cfg_register>
   80a40:	e0bfff15 	stw	r2,-4(fp)
	err = alt_up_av_config_write_audio_cfg_register(audio_dev, 0x05, 0x00);
   80a44:	e13ffe17 	ldw	r4,-8(fp)
   80a48:	01400144 	movi	r5,5
   80a4c:	000d883a 	mov	r6,zero
   80a50:	00907e40 	call	907e4 <alt_up_av_config_write_audio_cfg_register>
   80a54:	e0bfff15 	stw	r2,-4(fp)
	err = alt_up_av_config_write_audio_cfg_register(audio_dev, 0x06, 0x00);
   80a58:	e13ffe17 	ldw	r4,-8(fp)
   80a5c:	01400184 	movi	r5,6
   80a60:	000d883a 	mov	r6,zero
   80a64:	00907e40 	call	907e4 <alt_up_av_config_write_audio_cfg_register>
   80a68:	e0bfff15 	stw	r2,-4(fp)
	err = alt_up_av_config_write_audio_cfg_register(audio_dev, 0x07, 0x4A);
   80a6c:	e13ffe17 	ldw	r4,-8(fp)
   80a70:	014001c4 	movi	r5,7
   80a74:	01801284 	movi	r6,74
   80a78:	00907e40 	call	907e4 <alt_up_av_config_write_audio_cfg_register>
   80a7c:	e0bfff15 	stw	r2,-4(fp)
	err = alt_up_av_config_write_audio_cfg_register(audio_dev, 0x08, 0x01);
   80a80:	e13ffe17 	ldw	r4,-8(fp)
   80a84:	01400204 	movi	r5,8
   80a88:	01800044 	movi	r6,1
   80a8c:	00907e40 	call	907e4 <alt_up_av_config_write_audio_cfg_register>
   80a90:	e0bfff15 	stw	r2,-4(fp)
	err = alt_up_av_config_write_audio_cfg_register(audio_dev, 0x09, 0x01);
   80a94:	e13ffe17 	ldw	r4,-8(fp)
   80a98:	01400244 	movi	r5,9
   80a9c:	01800044 	movi	r6,1
   80aa0:	00907e40 	call	907e4 <alt_up_av_config_write_audio_cfg_register>
   80aa4:	e0bfff15 	stw	r2,-4(fp)
	if(err < 0)
   80aa8:	e0bfff17 	ldw	r2,-4(fp)
   80aac:	1004403a 	cmpge	r2,r2,zero
   80ab0:	1000041e 	bne	r2,zero,80ac4 <initCodecAsMaster+0x108>
		printf("Audio Configuration Failed\n");
   80ab4:	01000274 	movhi	r4,9
   80ab8:	2109f604 	addi	r4,r4,10200
   80abc:	00868f40 	call	868f4 <puts>
   80ac0:	00000306 	br	80ad0 <initCodecAsMaster+0x114>
	else
		printf("Audio Configuration Succesful\n");
   80ac4:	01000274 	movhi	r4,9
   80ac8:	2109fd04 	addi	r4,r4,10228
   80acc:	00868f40 	call	868f4 <puts>
}
   80ad0:	e037883a 	mov	sp,fp
   80ad4:	dfc00117 	ldw	ra,4(sp)
   80ad8:	df000017 	ldw	fp,0(sp)
   80adc:	dec00204 	addi	sp,sp,8
   80ae0:	f800283a 	ret

00080ae4 <main>:

int main(void)
{
   80ae4:	deffb404 	addi	sp,sp,-304
   80ae8:	dfc04b15 	stw	ra,300(sp)
   80aec:	df004a15 	stw	fp,296(sp)
   80af0:	dc804915 	stw	r18,292(sp)
   80af4:	dc404815 	stw	r17,288(sp)
   80af8:	dc004715 	stw	r16,284(sp)
   80afc:	df004704 	addi	fp,sp,284
	/* Used for sound buffer */
	long quarter_sound_samples[QUARTER_SOUND_SAMPLES];
	unsigned char quarter_samples = 0, full_samples = 0, sample_i = 0;
   80b00:	e03fbe85 	stb	zero,-262(fp)
   80b04:	e03fbe45 	stb	zero,-263(fp)
   80b08:	e03fbe05 	stb	zero,-264(fp)
	int hertz = 0, old_hertz = 0;
   80b0c:	e03fbd15 	stw	zero,-268(fp)
   80b10:	e03fbc15 	stw	zero,-272(fp)
	char key_keys[KEY_BUFFER_SIZE_WITH_TERMINATE];

	/* used for PS/2 port data */
	alt_up_ps2_dev *PS2_dev;
	unsigned char keyboard_keys[KEYBOARD_BUFFER_SIZE_WITH_TERMINATE];
	unsigned char keyboard_key = NULL_TERMINATE, keyboard_oldkey = NULL_TERMINATE, i=0;
   80b14:	e03fba85 	stb	zero,-278(fp)
   80b18:	e03fba45 	stb	zero,-279(fp)
   80b1c:	e03fba05 	stb	zero,-280(fp)

	// Init Keyboard-buffer - also the extra space in the end (constantly null terminate)
	for(i=0; i<KEYBOARD_BUFFER_SIZE_WITH_TERMINATE;i++)
   80b20:	e03fba05 	stb	zero,-280(fp)
   80b24:	00000706 	br	80b44 <main+0x60>
	{
		keyboard_keys[i] = NULL_TERMINATE;
   80b28:	e0ffba03 	ldbu	r3,-280(fp)
   80b2c:	e0bffcc4 	addi	r2,fp,-13
   80b30:	10c5883a 	add	r2,r2,r3
   80b34:	10000005 	stb	zero,0(r2)
	alt_up_ps2_dev *PS2_dev;
	unsigned char keyboard_keys[KEYBOARD_BUFFER_SIZE_WITH_TERMINATE];
	unsigned char keyboard_key = NULL_TERMINATE, keyboard_oldkey = NULL_TERMINATE, i=0;

	// Init Keyboard-buffer - also the extra space in the end (constantly null terminate)
	for(i=0; i<KEYBOARD_BUFFER_SIZE_WITH_TERMINATE;i++)
   80b38:	e0bfba03 	ldbu	r2,-280(fp)
   80b3c:	10800044 	addi	r2,r2,1
   80b40:	e0bfba05 	stb	r2,-280(fp)
   80b44:	e0bfba03 	ldbu	r2,-280(fp)
   80b48:	108001f0 	cmpltui	r2,r2,7
   80b4c:	103ff61e 	bne	r2,zero,80b28 <main+0x44>
	{
		keyboard_keys[i] = NULL_TERMINATE;
	}

	initCodecAsMaster();
   80b50:	00809bc0 	call	809bc <initCodecAsMaster>

	// Open the PS2 port
	PS2_dev = alt_up_ps2_open_dev (PS2_PORT_NAME);
   80b54:	01000274 	movhi	r4,9
   80b58:	210a0504 	addi	r4,r4,10260
   80b5c:	00913980 	call	91398 <alt_up_ps2_open_dev>
   80b60:	e0bfbb15 	stw	r2,-276(fp)
	if (PS2_dev == NULL)
   80b64:	e0bfbb17 	ldw	r2,-276(fp)
   80b68:	1004c03a 	cmpne	r2,r2,zero
   80b6c:	1000061e 	bne	r2,zero,80b88 <main+0xa4>
	{
		alt_printf ("Error: could not open PS/2 device!!!\n");
   80b70:	01000274 	movhi	r4,9
   80b74:	210a0904 	addi	r4,r4,10276
   80b78:	008e1d40 	call	8e1d4 <alt_printf>
		return -1;
   80b7c:	00bfffc4 	movi	r2,-1
   80b80:	e0bfff15 	stw	r2,-4(fp)
   80b84:	0000ed06 	br	80f3c <main+0x458>
	}
	else
	{
		alt_printf ("Opened PS/2 device\n");
   80b88:	01000274 	movhi	r4,9
   80b8c:	210a1304 	addi	r4,r4,10316
   80b90:	008e1d40 	call	8e1d4 <alt_printf>
		(void) alt_up_ps2_write_data_byte (PS2_dev, 0xFF);	// Reset PS/2
   80b94:	e13fbb17 	ldw	r4,-276(fp)
   80b98:	01403fc4 	movi	r5,255
   80b9c:	0090f7c0 	call	90f7c <alt_up_ps2_write_data_byte>
   80ba0:	00000006 	br	80ba4 <main+0xc0>
	}

	// Loop main functions
	while(1)
	{
		long switches = IORD_ALTERA_AVALON_PIO_DATA(PIO_INPUT_SW_BASE);
   80ba4:	00800434 	movhi	r2,16
   80ba8:	10859c04 	addi	r2,r2,5744
   80bac:	10800037 	ldwio	r2,0(r2)
   80bb0:	e0bfb915 	stw	r2,-284(fp)
		if(switches & 1 == 1)
   80bb4:	e0bfb917 	ldw	r2,-284(fp)
   80bb8:	1080004c 	andi	r2,r2,1
   80bbc:	10803fcc 	andi	r2,r2,255
   80bc0:	1005003a 	cmpeq	r2,r2,zero
   80bc4:	10000c1e 	bne	r2,zero,80bf8 <main+0x114>
		{
			updateKeyKeys(&key_keys);
   80bc8:	e13ffb04 	addi	r4,fp,-20
   80bcc:	00808d00 	call	808d0 <updateKeyKeys>

			// Write information on LCD
			writeToLCD("Keys pressed:",1);
   80bd0:	01000274 	movhi	r4,9
   80bd4:	210a1804 	addi	r4,r4,10336
   80bd8:	01400044 	movi	r5,1
   80bdc:	00802dc0 	call	802dc <writeToLCD>
			writeToLCD(key_keys,2);
   80be0:	e13ffb04 	addi	r4,fp,-20
   80be4:	01400084 	movi	r5,2
   80be8:	00802dc0 	call	802dc <writeToLCD>
			hertz= 440;
   80bec:	00806e04 	movi	r2,440
   80bf0:	e0bfbd15 	stw	r2,-268(fp)
   80bf4:	00001806 	br	80c58 <main+0x174>
		} else
		{
			keyboard_key = updateKeyboardKeys(PS2_dev,&keyboard_keys,KEYBOARD_BUFFER_SIZE);
   80bf8:	e17ffcc4 	addi	r5,fp,-13
   80bfc:	e13fbb17 	ldw	r4,-276(fp)
   80c00:	01800184 	movi	r6,6
   80c04:	008038c0 	call	8038c <updateKeyboardKeys>
   80c08:	e0bfba85 	stb	r2,-278(fp)
			if(keyboard_key != keyboard_oldkey)
   80c0c:	e0ffba83 	ldbu	r3,-278(fp)
   80c10:	e0bfba43 	ldbu	r2,-279(fp)
   80c14:	18800926 	beq	r3,r2,80c3c <main+0x158>
			{
				printf ("Last pressed down PS/2-key: %c\n", keyboard_key);
   80c18:	e17fba83 	ldbu	r5,-278(fp)
   80c1c:	01000274 	movhi	r4,9
   80c20:	210a1c04 	addi	r4,r4,10352
   80c24:	00867dc0 	call	867dc <printf>
				keyboard_oldkey = keyboard_key;
   80c28:	e0bfba83 	ldbu	r2,-278(fp)
   80c2c:	e0bfba45 	stb	r2,-279(fp)
				hertz = keyboardKeyToHertz(keyboard_key);
   80c30:	e13fba83 	ldbu	r4,-278(fp)
   80c34:	00805d00 	call	805d0 <keyboardKeyToHertz>
   80c38:	e0bfbd15 	stw	r2,-268(fp)
				//hertz = getHertzFromKeyboardKey(keyboard_key);

			}

			// Write information on LCD
			writeToLCD("Keyboard press:",1);
   80c3c:	01000274 	movhi	r4,9
   80c40:	210a2404 	addi	r4,r4,10384
   80c44:	01400044 	movi	r5,1
   80c48:	00802dc0 	call	802dc <writeToLCD>
			writeToLCD(keyboard_keys,2);
   80c4c:	e13ffcc4 	addi	r4,fp,-13
   80c50:	01400084 	movi	r5,2
   80c54:	00802dc0 	call	802dc <writeToLCD>
		}

		// Do all the sound-things if hertz have changed!
		if(hertz != old_hertz)
   80c58:	e0ffbd17 	ldw	r3,-268(fp)
   80c5c:	e0bfbc17 	ldw	r2,-272(fp)
   80c60:	18bfd026 	beq	r3,r2,80ba4 <main+0xc0>
		{
			old_hertz = hertz;
   80c64:	e0bfbd17 	ldw	r2,-268(fp)
   80c68:	e0bfbc15 	stw	r2,-272(fp)

			printBCDon7Seg(hertz);
   80c6c:	e13fbd17 	ldw	r4,-268(fp)
   80c70:	008029c0 	call	8029c <printBCDon7Seg>
			printf("Printed hertz: %u\n",hertz);
   80c74:	01000274 	movhi	r4,9
   80c78:	210a2804 	addi	r4,r4,10400
   80c7c:	e17fbd17 	ldw	r5,-268(fp)
   80c80:	00867dc0 	call	867dc <printf>

			// Find sound-samples and send to VHDL
			if(hertz == 0)
   80c84:	e0bfbd17 	ldw	r2,-268(fp)
   80c88:	1005003a 	cmpeq	r2,r2,zero
   80c8c:	103fc51e 	bne	r2,zero,80ba4 <main+0xc0>
			{
				// SEND 0 to VHDL
			}
			else
			{
				quarter_samples = SOUND_HERTZ/hertz/4;
   80c90:	010bb804 	movi	r4,12000
   80c94:	e17fbd17 	ldw	r5,-268(fp)
   80c98:	00843000 	call	84300 <__divsi3>
   80c9c:	e0bfbe85 	stb	r2,-262(fp)
				full_samples = quarter_samples*4;
   80ca0:	e0bfbe83 	ldbu	r2,-262(fp)
   80ca4:	1085883a 	add	r2,r2,r2
   80ca8:	1085883a 	add	r2,r2,r2
   80cac:	e0bfbe45 	stb	r2,-263(fp)

				// Write number of samples to RAM-controller
				IOWR_16DIRECT(RAM_SOUND_0_BASE, 0, full_samples);
   80cb0:	e0ffbe43 	ldbu	r3,-263(fp)
   80cb4:	0005883a 	mov	r2,zero
   80cb8:	10c0002d 	sthio	r3,0(r2)

				if(quarter_samples > QUARTER_SOUND_SAMPLES)
   80cbc:	e0bfbe83 	ldbu	r2,-262(fp)
   80cc0:	10800f70 	cmpltui	r2,r2,61
   80cc4:	1000071e 	bne	r2,zero,80ce4 <main+0x200>
				{
					printf("ERROR: Number of samples (%u) exceeds size of sample-buffer (%u) for %u Hz!\n",
   80cc8:	e17fbe43 	ldbu	r5,-263(fp)
   80ccc:	01000274 	movhi	r4,9
   80cd0:	210a2d04 	addi	r4,r4,10420
   80cd4:	01803c04 	movi	r6,240
   80cd8:	e1ffbd17 	ldw	r7,-268(fp)
   80cdc:	00867dc0 	call	867dc <printf>
   80ce0:	003fb006 	br	80ba4 <main+0xc0>
							full_samples, QUARTER_SOUND_SAMPLES*4, hertz);
				}
				else
				{
					// FIRST QUARTER
					for(sample_i = 0; sample_i < quarter_samples; sample_i++)
   80ce4:	e03fbe05 	stb	zero,-264(fp)
   80ce8:	00004c06 	br	80e1c <main+0x338>
					{
						quarter_sound_samples[sample_i] = (1+sin((sample_i*2*PI)/full_samples))*HALF_MAX_CODEC_SIZE;
   80cec:	e4bfbe03 	ldbu	r18,-264(fp)
   80cf0:	e0bfbe03 	ldbu	r2,-264(fp)
   80cf4:	1085883a 	add	r2,r2,r2
   80cf8:	1009883a 	mov	r4,r2
   80cfc:	00840b40 	call	840b4 <__floatsidf>
   80d00:	100b883a 	mov	r5,r2
   80d04:	180d883a 	mov	r6,r3
   80d08:	2809883a 	mov	r4,r5
   80d0c:	300b883a 	mov	r5,r6
   80d10:	0194f274 	movhi	r6,21449
   80d14:	31b53c44 	addi	r6,r6,-11023
   80d18:	01d00274 	movhi	r7,16393
   80d1c:	39c87ec4 	addi	r7,r7,8699
   80d20:	00839000 	call	83900 <__muldf3>
   80d24:	1009883a 	mov	r4,r2
   80d28:	180b883a 	mov	r5,r3
   80d2c:	2021883a 	mov	r16,r4
   80d30:	2823883a 	mov	r17,r5
   80d34:	e13fbe43 	ldbu	r4,-263(fp)
   80d38:	00840b40 	call	840b4 <__floatsidf>
   80d3c:	100f883a 	mov	r7,r2
   80d40:	1811883a 	mov	r8,r3
   80d44:	8009883a 	mov	r4,r16
   80d48:	880b883a 	mov	r5,r17
   80d4c:	380d883a 	mov	r6,r7
   80d50:	400f883a 	mov	r7,r8
   80d54:	0083cc40 	call	83cc4 <__divdf3>
   80d58:	1009883a 	mov	r4,r2
   80d5c:	180b883a 	mov	r5,r3
   80d60:	2005883a 	mov	r2,r4
   80d64:	2807883a 	mov	r3,r5
   80d68:	1009883a 	mov	r4,r2
   80d6c:	180b883a 	mov	r5,r3
   80d70:	0080f600 	call	80f60 <sin>
   80d74:	100b883a 	mov	r5,r2
   80d78:	180d883a 	mov	r6,r3
   80d7c:	2809883a 	mov	r4,r5
   80d80:	300b883a 	mov	r5,r6
   80d84:	000d883a 	mov	r6,zero
   80d88:	01cffc34 	movhi	r7,16368
   80d8c:	008388c0 	call	8388c <__adddf3>
   80d90:	1009883a 	mov	r4,r2
   80d94:	180b883a 	mov	r5,r3
   80d98:	2005883a 	mov	r2,r4
   80d9c:	2807883a 	mov	r3,r5
   80da0:	1009883a 	mov	r4,r2
   80da4:	180b883a 	mov	r5,r3
   80da8:	000d883a 	mov	r6,zero
   80dac:	01d05834 	movhi	r7,16736
   80db0:	00839000 	call	83900 <__muldf3>
   80db4:	1009883a 	mov	r4,r2
   80db8:	180b883a 	mov	r5,r3
   80dbc:	2005883a 	mov	r2,r4
   80dc0:	2807883a 	mov	r3,r5
   80dc4:	1009883a 	mov	r4,r2
   80dc8:	180b883a 	mov	r5,r3
   80dcc:	00841ac0 	call	841ac <__fixdfsi>
   80dd0:	1007883a 	mov	r3,r2
   80dd4:	9485883a 	add	r2,r18,r18
   80dd8:	1085883a 	add	r2,r2,r2
   80ddc:	e13fb904 	addi	r4,fp,-284
   80de0:	1105883a 	add	r2,r2,r4
   80de4:	10800604 	addi	r2,r2,24
   80de8:	10c00015 	stw	r3,0(r2)
						//printf("%u,",quarter_sound_samples[sample_i]);
						IOWR_16DIRECT(RAM_SOUND_0_BASE, 4, quarter_sound_samples[sample_i]);
   80dec:	e0bfbe03 	ldbu	r2,-264(fp)
   80df0:	1085883a 	add	r2,r2,r2
   80df4:	1085883a 	add	r2,r2,r2
   80df8:	e0ffb904 	addi	r3,fp,-284
   80dfc:	10c5883a 	add	r2,r2,r3
   80e00:	10800604 	addi	r2,r2,24
   80e04:	10c00017 	ldw	r3,0(r2)
   80e08:	00800104 	movi	r2,4
   80e0c:	10c0002d 	sthio	r3,0(r2)
							full_samples, QUARTER_SOUND_SAMPLES*4, hertz);
				}
				else
				{
					// FIRST QUARTER
					for(sample_i = 0; sample_i < quarter_samples; sample_i++)
   80e10:	e0bfbe03 	ldbu	r2,-264(fp)
   80e14:	10800044 	addi	r2,r2,1
   80e18:	e0bfbe05 	stb	r2,-264(fp)
   80e1c:	e0ffbe03 	ldbu	r3,-264(fp)
   80e20:	e0bfbe83 	ldbu	r2,-262(fp)
   80e24:	18bfb136 	bltu	r3,r2,80cec <main+0x208>
						//printf("%u,",quarter_sound_samples[sample_i]);
						IOWR_16DIRECT(RAM_SOUND_0_BASE, 4, quarter_sound_samples[sample_i]);
					}

					// SECOND QUARTER
					for(sample_i = quarter_samples; sample_i > 0; sample_i--)
   80e28:	e0bfbe83 	ldbu	r2,-262(fp)
   80e2c:	e0bfbe05 	stb	r2,-264(fp)
   80e30:	00000d06 	br	80e68 <main+0x384>
					{
						// SEND TO PORT
						//printf("%u,",quarter_sound_samples[sample_i-1]);
						IOWR_16DIRECT(RAM_SOUND_0_BASE, 4, quarter_sound_samples[sample_i-1]);
   80e34:	e0bfbe03 	ldbu	r2,-264(fp)
   80e38:	10bfffc4 	addi	r2,r2,-1
   80e3c:	1085883a 	add	r2,r2,r2
   80e40:	1085883a 	add	r2,r2,r2
   80e44:	e13fb904 	addi	r4,fp,-284
   80e48:	1105883a 	add	r2,r2,r4
   80e4c:	10800604 	addi	r2,r2,24
   80e50:	10c00017 	ldw	r3,0(r2)
   80e54:	00800104 	movi	r2,4
   80e58:	10c0002d 	sthio	r3,0(r2)
						//printf("%u,",quarter_sound_samples[sample_i]);
						IOWR_16DIRECT(RAM_SOUND_0_BASE, 4, quarter_sound_samples[sample_i]);
					}

					// SECOND QUARTER
					for(sample_i = quarter_samples; sample_i > 0; sample_i--)
   80e5c:	e0bfbe03 	ldbu	r2,-264(fp)
   80e60:	10bfffc4 	addi	r2,r2,-1
   80e64:	e0bfbe05 	stb	r2,-264(fp)
   80e68:	e0bfbe03 	ldbu	r2,-264(fp)
   80e6c:	1004c03a 	cmpne	r2,r2,zero
   80e70:	103ff01e 	bne	r2,zero,80e34 <main+0x350>
						//printf("%u,",quarter_sound_samples[sample_i-1]);
						IOWR_16DIRECT(RAM_SOUND_0_BASE, 4, quarter_sound_samples[sample_i-1]);
					}

					// THIRD QUARTER
					for(sample_i = 0; sample_i < quarter_samples; sample_i++)
   80e74:	e03fbe05 	stb	zero,-264(fp)
   80e78:	00000e06 	br	80eb4 <main+0x3d0>
					{
						// SEND TO PORT
						//printf("%u,", MAX_CODEC_SIZE-quarter_sound_samples[sample_i]);
						IOWR_16DIRECT(RAM_SOUND_0_BASE, 4, MAX_CODEC_SIZE-quarter_sound_samples[sample_i]);
   80e7c:	e0bfbe03 	ldbu	r2,-264(fp)
   80e80:	1085883a 	add	r2,r2,r2
   80e84:	1085883a 	add	r2,r2,r2
   80e88:	e0ffb904 	addi	r3,fp,-284
   80e8c:	10c5883a 	add	r2,r2,r3
   80e90:	10800604 	addi	r2,r2,24
   80e94:	10c00017 	ldw	r3,0(r2)
   80e98:	00804034 	movhi	r2,256
   80e9c:	10c7c83a 	sub	r3,r2,r3
   80ea0:	00800104 	movi	r2,4
   80ea4:	10c0002d 	sthio	r3,0(r2)
						//printf("%u,",quarter_sound_samples[sample_i-1]);
						IOWR_16DIRECT(RAM_SOUND_0_BASE, 4, quarter_sound_samples[sample_i-1]);
					}

					// THIRD QUARTER
					for(sample_i = 0; sample_i < quarter_samples; sample_i++)
   80ea8:	e0bfbe03 	ldbu	r2,-264(fp)
   80eac:	10800044 	addi	r2,r2,1
   80eb0:	e0bfbe05 	stb	r2,-264(fp)
   80eb4:	e0ffbe03 	ldbu	r3,-264(fp)
   80eb8:	e0bfbe83 	ldbu	r2,-262(fp)
   80ebc:	18bfef36 	bltu	r3,r2,80e7c <main+0x398>
						//printf("%u,", MAX_CODEC_SIZE-quarter_sound_samples[sample_i]);
						IOWR_16DIRECT(RAM_SOUND_0_BASE, 4, MAX_CODEC_SIZE-quarter_sound_samples[sample_i]);
					}

					// FOURTH QUARTER
					for(sample_i = quarter_samples; sample_i > 0; sample_i--)
   80ec0:	e0bfbe83 	ldbu	r2,-262(fp)
   80ec4:	e0bfbe05 	stb	r2,-264(fp)
   80ec8:	00000f06 	br	80f08 <main+0x424>
					{
						// SEND TO PORT
						//printf("%u,",MAX_CODEC_SIZE-quarter_sound_samples[sample_i-1]);
						IOWR_16DIRECT(RAM_SOUND_0_BASE, 4, MAX_CODEC_SIZE-quarter_sound_samples[sample_i-1]);
   80ecc:	e0bfbe03 	ldbu	r2,-264(fp)
   80ed0:	10bfffc4 	addi	r2,r2,-1
   80ed4:	1085883a 	add	r2,r2,r2
   80ed8:	1085883a 	add	r2,r2,r2
   80edc:	e13fb904 	addi	r4,fp,-284
   80ee0:	1105883a 	add	r2,r2,r4
   80ee4:	10800604 	addi	r2,r2,24
   80ee8:	10c00017 	ldw	r3,0(r2)
   80eec:	00804034 	movhi	r2,256
   80ef0:	10c7c83a 	sub	r3,r2,r3
   80ef4:	00800104 	movi	r2,4
   80ef8:	10c0002d 	sthio	r3,0(r2)
						//printf("%u,", MAX_CODEC_SIZE-quarter_sound_samples[sample_i]);
						IOWR_16DIRECT(RAM_SOUND_0_BASE, 4, MAX_CODEC_SIZE-quarter_sound_samples[sample_i]);
					}

					// FOURTH QUARTER
					for(sample_i = quarter_samples; sample_i > 0; sample_i--)
   80efc:	e0bfbe03 	ldbu	r2,-264(fp)
   80f00:	10bfffc4 	addi	r2,r2,-1
   80f04:	e0bfbe05 	stb	r2,-264(fp)
   80f08:	e0bfbe03 	ldbu	r2,-264(fp)
   80f0c:	1004c03a 	cmpne	r2,r2,zero
   80f10:	103fee1e 	bne	r2,zero,80ecc <main+0x3e8>
						// SEND TO PORT
						//printf("%u,",MAX_CODEC_SIZE-quarter_sound_samples[sample_i-1]);
						IOWR_16DIRECT(RAM_SOUND_0_BASE, 4, MAX_CODEC_SIZE-quarter_sound_samples[sample_i-1]);
					}

					printf("Printed %u samples to MM\n",full_samples);
   80f14:	e17fbe43 	ldbu	r5,-263(fp)
   80f18:	01000274 	movhi	r4,9
   80f1c:	210a4104 	addi	r4,r4,10500
   80f20:	00867dc0 	call	867dc <printf>
					IOWR_16DIRECT(RAM_SOUND_0_BASE, 2, 0);
   80f24:	00800084 	movi	r2,2
   80f28:	1000002d 	sthio	zero,0(r2)
					printf("Started playing...\n");
   80f2c:	01000274 	movhi	r4,9
   80f30:	210a4804 	addi	r4,r4,10528
   80f34:	00868f40 	call	868f4 <puts>
				}
			}
		}
	}
   80f38:	003f1a06 	br	80ba4 <main+0xc0>
}
   80f3c:	e0bfff17 	ldw	r2,-4(fp)
   80f40:	e037883a 	mov	sp,fp
   80f44:	dfc00417 	ldw	ra,16(sp)
   80f48:	df000317 	ldw	fp,12(sp)
   80f4c:	dc800217 	ldw	r18,8(sp)
   80f50:	dc400117 	ldw	r17,4(sp)
   80f54:	dc000017 	ldw	r16,0(sp)
   80f58:	dec00504 	addi	sp,sp,20
   80f5c:	f800283a 	ret

00080f60 <sin>:
   80f60:	00a00034 	movhi	r2,32768
   80f64:	10bfffc4 	addi	r2,r2,-1
   80f68:	defffa04 	addi	sp,sp,-24
   80f6c:	114c703a 	and	r6,r2,r5
   80f70:	008ffa74 	movhi	r2,16361
   80f74:	10887ec4 	addi	r2,r2,8699
   80f78:	dfc00515 	stw	ra,20(sp)
   80f7c:	2011883a 	mov	r8,r4
   80f80:	1180220e 	bge	r2,r6,8100c <sin+0xac>
   80f84:	009ffc34 	movhi	r2,32752
   80f88:	10bfffc4 	addi	r2,r2,-1
   80f8c:	11800a0e 	bge	r2,r6,80fb8 <sin+0x58>
   80f90:	280f883a 	mov	r7,r5
   80f94:	400d883a 	mov	r6,r8
   80f98:	008380c0 	call	8380c <__subdf3>
   80f9c:	100d883a 	mov	r6,r2
   80fa0:	180f883a 	mov	r7,r3
   80fa4:	3005883a 	mov	r2,r6
   80fa8:	3807883a 	mov	r3,r7
   80fac:	dfc00517 	ldw	ra,20(sp)
   80fb0:	dec00604 	addi	sp,sp,24
   80fb4:	f800283a 	ret
   80fb8:	d9800104 	addi	r6,sp,4
   80fbc:	00810cc0 	call	810cc <__ieee754_rem_pio2>
   80fc0:	10c000cc 	andi	r3,r2,3
   80fc4:	01000044 	movi	r4,1
   80fc8:	19001b26 	beq	r3,r4,81038 <sin+0xd8>
   80fcc:	00800084 	movi	r2,2
   80fd0:	18803126 	beq	r3,r2,81098 <sin+0x138>
   80fd4:	1800241e 	bne	r3,zero,81068 <sin+0x108>
   80fd8:	d8800117 	ldw	r2,4(sp)
   80fdc:	da000317 	ldw	r8,12(sp)
   80fe0:	d8c00217 	ldw	r3,8(sp)
   80fe4:	da400417 	ldw	r9,16(sp)
   80fe8:	d9000015 	stw	r4,0(sp)
   80fec:	400d883a 	mov	r6,r8
   80ff0:	480f883a 	mov	r7,r9
   80ff4:	180b883a 	mov	r5,r3
   80ff8:	1009883a 	mov	r4,r2
   80ffc:	0082ca40 	call	82ca4 <__kernel_sin>
   81000:	100d883a 	mov	r6,r2
   81004:	180f883a 	mov	r7,r3
   81008:	003fe606 	br	80fa4 <sin+0x44>
   8100c:	000d883a 	mov	r6,zero
   81010:	000f883a 	mov	r7,zero
   81014:	d8000015 	stw	zero,0(sp)
   81018:	0082ca40 	call	82ca4 <__kernel_sin>
   8101c:	100d883a 	mov	r6,r2
   81020:	180f883a 	mov	r7,r3
   81024:	3005883a 	mov	r2,r6
   81028:	3807883a 	mov	r3,r7
   8102c:	dfc00517 	ldw	ra,20(sp)
   81030:	dec00604 	addi	sp,sp,24
   81034:	f800283a 	ret
   81038:	d8800117 	ldw	r2,4(sp)
   8103c:	da000317 	ldw	r8,12(sp)
   81040:	d8c00217 	ldw	r3,8(sp)
   81044:	da400417 	ldw	r9,16(sp)
   81048:	400d883a 	mov	r6,r8
   8104c:	180b883a 	mov	r5,r3
   81050:	480f883a 	mov	r7,r9
   81054:	1009883a 	mov	r4,r2
   81058:	00818f40 	call	818f4 <__kernel_cos>
   8105c:	100d883a 	mov	r6,r2
   81060:	180f883a 	mov	r7,r3
   81064:	003fcf06 	br	80fa4 <sin+0x44>
   81068:	d8800117 	ldw	r2,4(sp)
   8106c:	da000317 	ldw	r8,12(sp)
   81070:	d8c00217 	ldw	r3,8(sp)
   81074:	da400417 	ldw	r9,16(sp)
   81078:	400d883a 	mov	r6,r8
   8107c:	180b883a 	mov	r5,r3
   81080:	480f883a 	mov	r7,r9
   81084:	1009883a 	mov	r4,r2
   81088:	00818f40 	call	818f4 <__kernel_cos>
   8108c:	100d883a 	mov	r6,r2
   81090:	19e0003c 	xorhi	r7,r3,32768
   81094:	003fc306 	br	80fa4 <sin+0x44>
   81098:	d8800117 	ldw	r2,4(sp)
   8109c:	da000317 	ldw	r8,12(sp)
   810a0:	d8c00217 	ldw	r3,8(sp)
   810a4:	da400417 	ldw	r9,16(sp)
   810a8:	d9000015 	stw	r4,0(sp)
   810ac:	400d883a 	mov	r6,r8
   810b0:	480f883a 	mov	r7,r9
   810b4:	180b883a 	mov	r5,r3
   810b8:	1009883a 	mov	r4,r2
   810bc:	0082ca40 	call	82ca4 <__kernel_sin>
   810c0:	100d883a 	mov	r6,r2
   810c4:	19e0003c 	xorhi	r7,r3,32768
   810c8:	003fb606 	br	80fa4 <sin+0x44>

000810cc <__ieee754_rem_pio2>:
   810cc:	deffe304 	addi	sp,sp,-116
   810d0:	00a00034 	movhi	r2,32768
   810d4:	10bfffc4 	addi	r2,r2,-1
   810d8:	dd801915 	stw	r22,100(sp)
   810dc:	28ac703a 	and	r22,r5,r2
   810e0:	008ffa74 	movhi	r2,16361
   810e4:	10887ec4 	addi	r2,r2,8699
   810e8:	df001b15 	stw	fp,108(sp)
   810ec:	dfc01c15 	stw	ra,112(sp)
   810f0:	ddc01a15 	stw	r23,104(sp)
   810f4:	dd401815 	stw	r21,96(sp)
   810f8:	dd001715 	stw	r20,92(sp)
   810fc:	dcc01615 	stw	r19,88(sp)
   81100:	dc801515 	stw	r18,84(sp)
   81104:	dc401415 	stw	r17,80(sp)
   81108:	dc001315 	stw	r16,76(sp)
   8110c:	2013883a 	mov	r9,r4
   81110:	d9400a15 	stw	r5,40(sp)
   81114:	3039883a 	mov	fp,r6
   81118:	15801216 	blt	r2,r22,81164 <__ieee754_rem_pio2+0x98>
   8111c:	e1400115 	stw	r5,4(fp)
   81120:	30000315 	stw	zero,12(r6)
   81124:	e1000015 	stw	r4,0(fp)
   81128:	d8000b15 	stw	zero,44(sp)
   8112c:	30000215 	stw	zero,8(r6)
   81130:	d8800b17 	ldw	r2,44(sp)
   81134:	dfc01c17 	ldw	ra,112(sp)
   81138:	df001b17 	ldw	fp,108(sp)
   8113c:	ddc01a17 	ldw	r23,104(sp)
   81140:	dd801917 	ldw	r22,100(sp)
   81144:	dd401817 	ldw	r21,96(sp)
   81148:	dd001717 	ldw	r20,92(sp)
   8114c:	dcc01617 	ldw	r19,88(sp)
   81150:	dc801517 	ldw	r18,84(sp)
   81154:	dc401417 	ldw	r17,80(sp)
   81158:	dc001317 	ldw	r16,76(sp)
   8115c:	dec01d04 	addi	sp,sp,116
   81160:	f800283a 	ret
   81164:	009000f4 	movhi	r2,16387
   81168:	10b65ec4 	addi	r2,r2,-9861
   8116c:	15800f0e 	bge	r2,r22,811ac <__ieee754_rem_pio2+0xe0>
   81170:	00904e74 	movhi	r2,16697
   81174:	10887ec4 	addi	r2,r2,8699
   81178:	1580330e 	bge	r2,r22,81248 <__ieee754_rem_pio2+0x17c>
   8117c:	009ffc34 	movhi	r2,32752
   81180:	10bfffc4 	addi	r2,r2,-1
   81184:	1580fe0e 	bge	r2,r22,81580 <__ieee754_rem_pio2+0x4b4>
   81188:	280f883a 	mov	r7,r5
   8118c:	480d883a 	mov	r6,r9
   81190:	008380c0 	call	8380c <__subdf3>
   81194:	e0c00115 	stw	r3,4(fp)
   81198:	d8000b15 	stw	zero,44(sp)
   8119c:	e0800015 	stw	r2,0(fp)
   811a0:	e0800215 	stw	r2,8(fp)
   811a4:	e0c00315 	stw	r3,12(fp)
   811a8:	003fe106 	br	81130 <__ieee754_rem_pio2+0x64>
   811ac:	d9000a17 	ldw	r4,40(sp)
   811b0:	0100ce0e 	bge	zero,r4,814ec <__ieee754_rem_pio2+0x420>
   811b4:	04151034 	movhi	r16,21568
   811b8:	044ffe74 	movhi	r17,16377
   811bc:	8c487ec4 	addi	r17,r17,8699
   811c0:	4809883a 	mov	r4,r9
   811c4:	800d883a 	mov	r6,r16
   811c8:	880f883a 	mov	r7,r17
   811cc:	008380c0 	call	8380c <__subdf3>
   811d0:	1025883a 	mov	r18,r2
   811d4:	1827883a 	mov	r19,r3
   811d8:	b4413c26 	beq	r22,r17,816cc <__ieee754_rem_pio2+0x600>
   811dc:	040698b4 	movhi	r16,6754
   811e0:	8418cc44 	addi	r16,r16,25393
   811e4:	044f7474 	movhi	r17,15825
   811e8:	8c6d1844 	addi	r17,r17,-19359
   811ec:	1009883a 	mov	r4,r2
   811f0:	180b883a 	mov	r5,r3
   811f4:	800d883a 	mov	r6,r16
   811f8:	880f883a 	mov	r7,r17
   811fc:	008380c0 	call	8380c <__subdf3>
   81200:	100d883a 	mov	r6,r2
   81204:	9009883a 	mov	r4,r18
   81208:	980b883a 	mov	r5,r19
   8120c:	180f883a 	mov	r7,r3
   81210:	e0800015 	stw	r2,0(fp)
   81214:	e0c00115 	stw	r3,4(fp)
   81218:	008380c0 	call	8380c <__subdf3>
   8121c:	1009883a 	mov	r4,r2
   81220:	800d883a 	mov	r6,r16
   81224:	880f883a 	mov	r7,r17
   81228:	180b883a 	mov	r5,r3
   8122c:	008380c0 	call	8380c <__subdf3>
   81230:	1009883a 	mov	r4,r2
   81234:	00800044 	movi	r2,1
   81238:	d8800b15 	stw	r2,44(sp)
   8123c:	e0c00315 	stw	r3,12(fp)
   81240:	e1000215 	stw	r4,8(fp)
   81244:	003fba06 	br	81130 <__ieee754_rem_pio2+0x64>
   81248:	0082fbc0 	call	82fbc <fabs>
   8124c:	021b72b4 	movhi	r8,28106
   81250:	423220c4 	addi	r8,r8,-14205
   81254:	024ff934 	movhi	r9,16356
   81258:	4a57cc04 	addi	r9,r9,24368
   8125c:	480f883a 	mov	r7,r9
   81260:	400d883a 	mov	r6,r8
   81264:	1009883a 	mov	r4,r2
   81268:	180b883a 	mov	r5,r3
   8126c:	1025883a 	mov	r18,r2
   81270:	1827883a 	mov	r19,r3
   81274:	00839000 	call	83900 <__muldf3>
   81278:	0011883a 	mov	r8,zero
   8127c:	024ff834 	movhi	r9,16352
   81280:	480f883a 	mov	r7,r9
   81284:	400d883a 	mov	r6,r8
   81288:	180b883a 	mov	r5,r3
   8128c:	1009883a 	mov	r4,r2
   81290:	008388c0 	call	8388c <__adddf3>
   81294:	180b883a 	mov	r5,r3
   81298:	1009883a 	mov	r4,r2
   8129c:	00841ac0 	call	841ac <__fixdfsi>
   812a0:	1009883a 	mov	r4,r2
   812a4:	d8800b15 	stw	r2,44(sp)
   812a8:	00840b40 	call	840b4 <__floatsidf>
   812ac:	1823883a 	mov	r17,r3
   812b0:	1009883a 	mov	r4,r2
   812b4:	d8800c15 	stw	r2,48(sp)
   812b8:	00effe74 	movhi	r3,49145
   812bc:	18c87ec4 	addi	r3,r3,8699
   812c0:	00951034 	movhi	r2,21568
   812c4:	880b883a 	mov	r5,r17
   812c8:	180f883a 	mov	r7,r3
   812cc:	100d883a 	mov	r6,r2
   812d0:	dc400d15 	stw	r17,52(sp)
   812d4:	00839000 	call	83900 <__muldf3>
   812d8:	180f883a 	mov	r7,r3
   812dc:	980b883a 	mov	r5,r19
   812e0:	9009883a 	mov	r4,r18
   812e4:	100d883a 	mov	r6,r2
   812e8:	008388c0 	call	8388c <__adddf3>
   812ec:	d9000c17 	ldw	r4,48(sp)
   812f0:	020698b4 	movhi	r8,6754
   812f4:	4218cc44 	addi	r8,r8,25393
   812f8:	024f7474 	movhi	r9,15825
   812fc:	4a6d1844 	addi	r9,r9,-19359
   81300:	880b883a 	mov	r5,r17
   81304:	480f883a 	mov	r7,r9
   81308:	400d883a 	mov	r6,r8
   8130c:	1025883a 	mov	r18,r2
   81310:	1827883a 	mov	r19,r3
   81314:	00839000 	call	83900 <__muldf3>
   81318:	d9000b17 	ldw	r4,44(sp)
   8131c:	100f883a 	mov	r7,r2
   81320:	1811883a 	mov	r8,r3
   81324:	008007c4 	movi	r2,31
   81328:	dc800e15 	stw	r18,56(sp)
   8132c:	3821883a 	mov	r16,r7
   81330:	dcc00f15 	stw	r19,60(sp)
   81334:	4023883a 	mov	r17,r8
   81338:	11010a0e 	bge	r2,r4,81764 <__ieee754_rem_pio2+0x698>
   8133c:	d9000e17 	ldw	r4,56(sp)
   81340:	d9400f17 	ldw	r5,60(sp)
   81344:	800d883a 	mov	r6,r16
   81348:	880f883a 	mov	r7,r17
   8134c:	008380c0 	call	8380c <__subdf3>
   81350:	1810d53a 	srli	r8,r3,20
   81354:	b02dd53a 	srai	r22,r22,20
   81358:	1009883a 	mov	r4,r2
   8135c:	4201ffcc 	andi	r8,r8,2047
   81360:	180b883a 	mov	r5,r3
   81364:	b211c83a 	sub	r8,r22,r8
   81368:	00800404 	movi	r2,16
   8136c:	dd801015 	stw	r22,64(sp)
   81370:	e1000015 	stw	r4,0(fp)
   81374:	e1400115 	stw	r5,4(fp)
   81378:	1200430e 	bge	r2,r8,81488 <__ieee754_rem_pio2+0x3bc>
   8137c:	d9000c17 	ldw	r4,48(sp)
   81380:	d9400d17 	ldw	r5,52(sp)
   81384:	00869834 	movhi	r2,6752
   81388:	00cf7474 	movhi	r3,15825
   8138c:	18ed1844 	addi	r3,r3,-19359
   81390:	180f883a 	mov	r7,r3
   81394:	100d883a 	mov	r6,r2
   81398:	00839000 	call	83900 <__muldf3>
   8139c:	d9000e17 	ldw	r4,56(sp)
   813a0:	d9400f17 	ldw	r5,60(sp)
   813a4:	100d883a 	mov	r6,r2
   813a8:	180f883a 	mov	r7,r3
   813ac:	1025883a 	mov	r18,r2
   813b0:	1827883a 	mov	r19,r3
   813b4:	008380c0 	call	8380c <__subdf3>
   813b8:	d9000c17 	ldw	r4,48(sp)
   813bc:	d9400d17 	ldw	r5,52(sp)
   813c0:	058b80f4 	movhi	r22,11779
   813c4:	b59c1cc4 	addi	r22,r22,28787
   813c8:	05cee8f4 	movhi	r23,15267
   813cc:	bdc66284 	addi	r23,r23,6538
   813d0:	b00d883a 	mov	r6,r22
   813d4:	b80f883a 	mov	r7,r23
   813d8:	d8801115 	stw	r2,68(sp)
   813dc:	d8c01215 	stw	r3,72(sp)
   813e0:	d8800815 	stw	r2,32(sp)
   813e4:	00839000 	call	83900 <__muldf3>
   813e8:	d9001217 	ldw	r4,72(sp)
   813ec:	d9400f17 	ldw	r5,60(sp)
   813f0:	d9800817 	ldw	r6,32(sp)
   813f4:	d9000915 	stw	r4,36(sp)
   813f8:	d9c01217 	ldw	r7,72(sp)
   813fc:	d9000e17 	ldw	r4,56(sp)
   81400:	1021883a 	mov	r16,r2
   81404:	1823883a 	mov	r17,r3
   81408:	008380c0 	call	8380c <__subdf3>
   8140c:	180b883a 	mov	r5,r3
   81410:	900d883a 	mov	r6,r18
   81414:	980f883a 	mov	r7,r19
   81418:	1009883a 	mov	r4,r2
   8141c:	008380c0 	call	8380c <__subdf3>
   81420:	180f883a 	mov	r7,r3
   81424:	880b883a 	mov	r5,r17
   81428:	8009883a 	mov	r4,r16
   8142c:	100d883a 	mov	r6,r2
   81430:	008380c0 	call	8380c <__subdf3>
   81434:	d9000817 	ldw	r4,32(sp)
   81438:	d9401217 	ldw	r5,72(sp)
   8143c:	180f883a 	mov	r7,r3
   81440:	100d883a 	mov	r6,r2
   81444:	1021883a 	mov	r16,r2
   81448:	1823883a 	mov	r17,r3
   8144c:	008380c0 	call	8380c <__subdf3>
   81450:	1810d53a 	srli	r8,r3,20
   81454:	1009883a 	mov	r4,r2
   81458:	d8801017 	ldw	r2,64(sp)
   8145c:	4201ffcc 	andi	r8,r8,2047
   81460:	180b883a 	mov	r5,r3
   81464:	1211c83a 	sub	r8,r2,r8
   81468:	00800c44 	movi	r2,49
   8146c:	e1000015 	stw	r4,0(fp)
   81470:	e1400115 	stw	r5,4(fp)
   81474:	1200f016 	blt	r2,r8,81838 <__ieee754_rem_pio2+0x76c>
   81478:	d8c00817 	ldw	r3,32(sp)
   8147c:	d9001217 	ldw	r4,72(sp)
   81480:	d8c00e15 	stw	r3,56(sp)
   81484:	d9000f15 	stw	r4,60(sp)
   81488:	e1800017 	ldw	r6,0(fp)
   8148c:	e1c00117 	ldw	r7,4(fp)
   81490:	d9400f17 	ldw	r5,60(sp)
   81494:	d9000e17 	ldw	r4,56(sp)
   81498:	008380c0 	call	8380c <__subdf3>
   8149c:	180b883a 	mov	r5,r3
   814a0:	800d883a 	mov	r6,r16
   814a4:	880f883a 	mov	r7,r17
   814a8:	1009883a 	mov	r4,r2
   814ac:	008380c0 	call	8380c <__subdf3>
   814b0:	d9400a17 	ldw	r5,40(sp)
   814b4:	e0800215 	stw	r2,8(fp)
   814b8:	e1800204 	addi	r6,fp,8
   814bc:	30c00115 	stw	r3,4(r6)
   814c0:	283f1b0e 	bge	r5,zero,81130 <__ieee754_rem_pio2+0x64>
   814c4:	e0c00117 	ldw	r3,4(fp)
   814c8:	d8800b17 	ldw	r2,44(sp)
   814cc:	18e0003c 	xorhi	r3,r3,32768
   814d0:	0085c83a 	sub	r2,zero,r2
   814d4:	e0c00115 	stw	r3,4(fp)
   814d8:	d8800b15 	stw	r2,44(sp)
   814dc:	30800117 	ldw	r2,4(r6)
   814e0:	10a0003c 	xorhi	r2,r2,32768
   814e4:	30800115 	stw	r2,4(r6)
   814e8:	003f1106 	br	81130 <__ieee754_rem_pio2+0x64>
   814ec:	04151034 	movhi	r16,21568
   814f0:	044ffe74 	movhi	r17,16377
   814f4:	8c487ec4 	addi	r17,r17,8699
   814f8:	4809883a 	mov	r4,r9
   814fc:	800d883a 	mov	r6,r16
   81500:	880f883a 	mov	r7,r17
   81504:	008388c0 	call	8388c <__adddf3>
   81508:	1025883a 	mov	r18,r2
   8150c:	1827883a 	mov	r19,r3
   81510:	b440a326 	beq	r22,r17,817a0 <__ieee754_rem_pio2+0x6d4>
   81514:	040698b4 	movhi	r16,6754
   81518:	8418cc44 	addi	r16,r16,25393
   8151c:	044f7474 	movhi	r17,15825
   81520:	8c6d1844 	addi	r17,r17,-19359
   81524:	1009883a 	mov	r4,r2
   81528:	180b883a 	mov	r5,r3
   8152c:	800d883a 	mov	r6,r16
   81530:	880f883a 	mov	r7,r17
   81534:	008388c0 	call	8388c <__adddf3>
   81538:	100d883a 	mov	r6,r2
   8153c:	9009883a 	mov	r4,r18
   81540:	980b883a 	mov	r5,r19
   81544:	180f883a 	mov	r7,r3
   81548:	e0800015 	stw	r2,0(fp)
   8154c:	e0c00115 	stw	r3,4(fp)
   81550:	008380c0 	call	8380c <__subdf3>
   81554:	1009883a 	mov	r4,r2
   81558:	800d883a 	mov	r6,r16
   8155c:	880f883a 	mov	r7,r17
   81560:	180b883a 	mov	r5,r3
   81564:	008388c0 	call	8388c <__adddf3>
   81568:	1009883a 	mov	r4,r2
   8156c:	00bfffc4 	movi	r2,-1
   81570:	d8800b15 	stw	r2,44(sp)
   81574:	e0c00315 	stw	r3,12(fp)
   81578:	e1000215 	stw	r4,8(fp)
   8157c:	003eec06 	br	81130 <__ieee754_rem_pio2+0x64>
   81580:	b005d53a 	srai	r2,r22,20
   81584:	4821883a 	mov	r16,r9
   81588:	05505c34 	movhi	r21,16752
   8158c:	15fefa84 	addi	r23,r2,-1046
   81590:	b826953a 	slli	r19,r23,20
   81594:	0029883a 	mov	r20,zero
   81598:	048000c4 	movi	r18,3
   8159c:	b4e7c83a 	sub	r19,r22,r19
   815a0:	980b883a 	mov	r5,r19
   815a4:	00841ac0 	call	841ac <__fixdfsi>
   815a8:	1009883a 	mov	r4,r2
   815ac:	00840b40 	call	840b4 <__floatsidf>
   815b0:	980b883a 	mov	r5,r19
   815b4:	8009883a 	mov	r4,r16
   815b8:	180f883a 	mov	r7,r3
   815bc:	100d883a 	mov	r6,r2
   815c0:	d8800215 	stw	r2,8(sp)
   815c4:	d8c00315 	stw	r3,12(sp)
   815c8:	008380c0 	call	8380c <__subdf3>
   815cc:	180b883a 	mov	r5,r3
   815d0:	a00d883a 	mov	r6,r20
   815d4:	a80f883a 	mov	r7,r21
   815d8:	1009883a 	mov	r4,r2
   815dc:	00839000 	call	83900 <__muldf3>
   815e0:	180b883a 	mov	r5,r3
   815e4:	1009883a 	mov	r4,r2
   815e8:	1823883a 	mov	r17,r3
   815ec:	1021883a 	mov	r16,r2
   815f0:	00841ac0 	call	841ac <__fixdfsi>
   815f4:	1009883a 	mov	r4,r2
   815f8:	00840b40 	call	840b4 <__floatsidf>
   815fc:	880b883a 	mov	r5,r17
   81600:	8009883a 	mov	r4,r16
   81604:	180f883a 	mov	r7,r3
   81608:	100d883a 	mov	r6,r2
   8160c:	d8800415 	stw	r2,16(sp)
   81610:	d8c00515 	stw	r3,20(sp)
   81614:	008380c0 	call	8380c <__subdf3>
   81618:	180b883a 	mov	r5,r3
   8161c:	000d883a 	mov	r6,zero
   81620:	a80f883a 	mov	r7,r21
   81624:	1009883a 	mov	r4,r2
   81628:	00839000 	call	83900 <__muldf3>
   8162c:	d8c00715 	stw	r3,28(sp)
   81630:	d8800615 	stw	r2,24(sp)
   81634:	00000106 	br	8163c <__ieee754_rem_pio2+0x570>
   81638:	8025883a 	mov	r18,r16
   8163c:	943fffc4 	addi	r16,r18,-1
   81640:	800890fa 	slli	r4,r16,3
   81644:	d9400204 	addi	r5,sp,8
   81648:	000d883a 	mov	r6,zero
   8164c:	2149883a 	add	r4,r4,r5
   81650:	20c00117 	ldw	r3,4(r4)
   81654:	20800017 	ldw	r2,0(r4)
   81658:	000f883a 	mov	r7,zero
   8165c:	180b883a 	mov	r5,r3
   81660:	1009883a 	mov	r4,r2
   81664:	0083f1c0 	call	83f1c <__eqdf2>
   81668:	103ff326 	beq	r2,zero,81638 <__ieee754_rem_pio2+0x56c>
   8166c:	00800084 	movi	r2,2
   81670:	00c00274 	movhi	r3,9
   81674:	18ca6d04 	addi	r3,r3,10676
   81678:	b80d883a 	mov	r6,r23
   8167c:	900f883a 	mov	r7,r18
   81680:	d9000204 	addi	r4,sp,8
   81684:	e00b883a 	mov	r5,fp
   81688:	d8800015 	stw	r2,0(sp)
   8168c:	d8c00115 	stw	r3,4(sp)
   81690:	0081e200 	call	81e20 <__kernel_rem_pio2>
   81694:	d8800b15 	stw	r2,44(sp)
   81698:	d8800a17 	ldw	r2,40(sp)
   8169c:	103ea40e 	bge	r2,zero,81130 <__ieee754_rem_pio2+0x64>
   816a0:	e0800117 	ldw	r2,4(fp)
   816a4:	d8c00b17 	ldw	r3,44(sp)
   816a8:	e1000204 	addi	r4,fp,8
   816ac:	10a0003c 	xorhi	r2,r2,32768
   816b0:	00c7c83a 	sub	r3,zero,r3
   816b4:	e0800115 	stw	r2,4(fp)
   816b8:	d8c00b15 	stw	r3,44(sp)
   816bc:	20c00117 	ldw	r3,4(r4)
   816c0:	18e0003c 	xorhi	r3,r3,32768
   816c4:	20c00115 	stw	r3,4(r4)
   816c8:	003e9906 	br	81130 <__ieee754_rem_pio2+0x64>
   816cc:	00869834 	movhi	r2,6752
   816d0:	00cf7474 	movhi	r3,15825
   816d4:	18ed1844 	addi	r3,r3,-19359
   816d8:	9009883a 	mov	r4,r18
   816dc:	980b883a 	mov	r5,r19
   816e0:	180f883a 	mov	r7,r3
   816e4:	100d883a 	mov	r6,r2
   816e8:	008380c0 	call	8380c <__subdf3>
   816ec:	048b80f4 	movhi	r18,11779
   816f0:	949c1cc4 	addi	r18,r18,28787
   816f4:	04cee8f4 	movhi	r19,15267
   816f8:	9cc66284 	addi	r19,r19,6538
   816fc:	1009883a 	mov	r4,r2
   81700:	180b883a 	mov	r5,r3
   81704:	900d883a 	mov	r6,r18
   81708:	980f883a 	mov	r7,r19
   8170c:	1021883a 	mov	r16,r2
   81710:	1823883a 	mov	r17,r3
   81714:	008380c0 	call	8380c <__subdf3>
   81718:	100d883a 	mov	r6,r2
   8171c:	8009883a 	mov	r4,r16
   81720:	880b883a 	mov	r5,r17
   81724:	180f883a 	mov	r7,r3
   81728:	e0800015 	stw	r2,0(fp)
   8172c:	e0c00115 	stw	r3,4(fp)
   81730:	008380c0 	call	8380c <__subdf3>
   81734:	180b883a 	mov	r5,r3
   81738:	1009883a 	mov	r4,r2
   8173c:	900d883a 	mov	r6,r18
   81740:	980f883a 	mov	r7,r19
   81744:	008380c0 	call	8380c <__subdf3>
   81748:	180b883a 	mov	r5,r3
   8174c:	1009883a 	mov	r4,r2
   81750:	00c00044 	movi	r3,1
   81754:	d8c00b15 	stw	r3,44(sp)
   81758:	e1400315 	stw	r5,12(fp)
   8175c:	e1000215 	stw	r4,8(fp)
   81760:	003e7306 	br	81130 <__ieee754_rem_pio2+0x64>
   81764:	2105883a 	add	r2,r4,r4
   81768:	1085883a 	add	r2,r2,r2
   8176c:	00c00274 	movhi	r3,9
   81770:	18ca4d04 	addi	r3,r3,10548
   81774:	10c5883a 	add	r2,r2,r3
   81778:	113fff17 	ldw	r4,-4(r2)
   8177c:	b13eef26 	beq	r22,r4,8133c <__ieee754_rem_pio2+0x270>
   81780:	980b883a 	mov	r5,r19
   81784:	400f883a 	mov	r7,r8
   81788:	9009883a 	mov	r4,r18
   8178c:	800d883a 	mov	r6,r16
   81790:	008380c0 	call	8380c <__subdf3>
   81794:	e0c00115 	stw	r3,4(fp)
   81798:	e0800015 	stw	r2,0(fp)
   8179c:	003f3a06 	br	81488 <__ieee754_rem_pio2+0x3bc>
   817a0:	00869834 	movhi	r2,6752
   817a4:	00cf7474 	movhi	r3,15825
   817a8:	18ed1844 	addi	r3,r3,-19359
   817ac:	9009883a 	mov	r4,r18
   817b0:	980b883a 	mov	r5,r19
   817b4:	180f883a 	mov	r7,r3
   817b8:	100d883a 	mov	r6,r2
   817bc:	008388c0 	call	8388c <__adddf3>
   817c0:	048b80f4 	movhi	r18,11779
   817c4:	949c1cc4 	addi	r18,r18,28787
   817c8:	04cee8f4 	movhi	r19,15267
   817cc:	9cc66284 	addi	r19,r19,6538
   817d0:	1009883a 	mov	r4,r2
   817d4:	180b883a 	mov	r5,r3
   817d8:	900d883a 	mov	r6,r18
   817dc:	980f883a 	mov	r7,r19
   817e0:	1021883a 	mov	r16,r2
   817e4:	1823883a 	mov	r17,r3
   817e8:	008388c0 	call	8388c <__adddf3>
   817ec:	100d883a 	mov	r6,r2
   817f0:	8009883a 	mov	r4,r16
   817f4:	880b883a 	mov	r5,r17
   817f8:	180f883a 	mov	r7,r3
   817fc:	e0800015 	stw	r2,0(fp)
   81800:	e0c00115 	stw	r3,4(fp)
   81804:	008380c0 	call	8380c <__subdf3>
   81808:	180b883a 	mov	r5,r3
   8180c:	1009883a 	mov	r4,r2
   81810:	900d883a 	mov	r6,r18
   81814:	980f883a 	mov	r7,r19
   81818:	008388c0 	call	8388c <__adddf3>
   8181c:	180b883a 	mov	r5,r3
   81820:	1009883a 	mov	r4,r2
   81824:	00ffffc4 	movi	r3,-1
   81828:	d8c00b15 	stw	r3,44(sp)
   8182c:	e1400315 	stw	r5,12(fp)
   81830:	e1000215 	stw	r4,8(fp)
   81834:	003e3e06 	br	81130 <__ieee754_rem_pio2+0x64>
   81838:	d9000c17 	ldw	r4,48(sp)
   8183c:	d9400d17 	ldw	r5,52(sp)
   81840:	018b8034 	movhi	r6,11776
   81844:	b80f883a 	mov	r7,r23
   81848:	00839000 	call	83900 <__muldf3>
   8184c:	d9000817 	ldw	r4,32(sp)
   81850:	d9401217 	ldw	r5,72(sp)
   81854:	100d883a 	mov	r6,r2
   81858:	180f883a 	mov	r7,r3
   8185c:	1025883a 	mov	r18,r2
   81860:	1827883a 	mov	r19,r3
   81864:	008380c0 	call	8380c <__subdf3>
   81868:	d9400d17 	ldw	r5,52(sp)
   8186c:	d9000c17 	ldw	r4,48(sp)
   81870:	02094834 	movhi	r8,9504
   81874:	42127044 	addi	r8,r8,18881
   81878:	024e5f34 	movhi	r9,14716
   8187c:	4a60e684 	addi	r9,r9,-31846
   81880:	480f883a 	mov	r7,r9
   81884:	400d883a 	mov	r6,r8
   81888:	182b883a 	mov	r21,r3
   8188c:	d8800e15 	stw	r2,56(sp)
   81890:	00839000 	call	83900 <__muldf3>
   81894:	d9000817 	ldw	r4,32(sp)
   81898:	d9401217 	ldw	r5,72(sp)
   8189c:	d9800e17 	ldw	r6,56(sp)
   818a0:	a80f883a 	mov	r7,r21
   818a4:	1021883a 	mov	r16,r2
   818a8:	1823883a 	mov	r17,r3
   818ac:	dd400f15 	stw	r21,60(sp)
   818b0:	008380c0 	call	8380c <__subdf3>
   818b4:	180b883a 	mov	r5,r3
   818b8:	900d883a 	mov	r6,r18
   818bc:	980f883a 	mov	r7,r19
   818c0:	1009883a 	mov	r4,r2
   818c4:	008380c0 	call	8380c <__subdf3>
   818c8:	180f883a 	mov	r7,r3
   818cc:	880b883a 	mov	r5,r17
   818d0:	8009883a 	mov	r4,r16
   818d4:	100d883a 	mov	r6,r2
   818d8:	008380c0 	call	8380c <__subdf3>
   818dc:	d9000e17 	ldw	r4,56(sp)
   818e0:	1021883a 	mov	r16,r2
   818e4:	1823883a 	mov	r17,r3
   818e8:	a80b883a 	mov	r5,r21
   818ec:	180f883a 	mov	r7,r3
   818f0:	003fa606 	br	8178c <__ieee754_rem_pio2+0x6c0>

000818f4 <__kernel_cos>:
   818f4:	defff104 	addi	sp,sp,-60
   818f8:	00a00034 	movhi	r2,32768
   818fc:	10bfffc4 	addi	r2,r2,-1
   81900:	dd800c15 	stw	r22,48(sp)
   81904:	116c703a 	and	r22,r2,r5
   81908:	0005883a 	mov	r2,zero
   8190c:	dd000a15 	stw	r20,40(sp)
   81910:	d8800215 	stw	r2,8(sp)
   81914:	2029883a 	mov	r20,r4
   81918:	008f9034 	movhi	r2,15936
   8191c:	10bfffc4 	addi	r2,r2,-1
   81920:	0009883a 	mov	r4,zero
   81924:	dd400b15 	stw	r21,44(sp)
   81928:	dfc00e15 	stw	ra,56(sp)
   8192c:	ddc00d15 	stw	r23,52(sp)
   81930:	dcc00915 	stw	r19,36(sp)
   81934:	dc800815 	stw	r18,32(sp)
   81938:	dc400715 	stw	r17,28(sp)
   8193c:	dc000615 	stw	r16,24(sp)
   81940:	282b883a 	mov	r21,r5
   81944:	d9800415 	stw	r6,16(sp)
   81948:	d9c00515 	stw	r7,20(sp)
   8194c:	d9000315 	stw	r4,12(sp)
   81950:	15809216 	blt	r2,r22,81b9c <__kernel_cos+0x2a8>
   81954:	a009883a 	mov	r4,r20
   81958:	00841ac0 	call	841ac <__fixdfsi>
   8195c:	10011c26 	beq	r2,zero,81dd0 <__kernel_cos+0x4dc>
   81960:	a009883a 	mov	r4,r20
   81964:	a80b883a 	mov	r5,r21
   81968:	a00d883a 	mov	r6,r20
   8196c:	a80f883a 	mov	r7,r21
   81970:	00839000 	call	83900 <__muldf3>
   81974:	1021883a 	mov	r16,r2
   81978:	1823883a 	mov	r17,r3
   8197c:	1025883a 	mov	r18,r2
   81980:	1827883a 	mov	r19,r3
   81984:	00afa234 	movhi	r2,48776
   81988:	108e3504 	addi	r2,r2,14548
   8198c:	00ef6a74 	movhi	r3,48553
   81990:	18feba44 	addi	r3,r3,-1303
   81994:	8009883a 	mov	r4,r16
   81998:	880b883a 	mov	r5,r17
   8199c:	180f883a 	mov	r7,r3
   819a0:	100d883a 	mov	r6,r2
   819a4:	00839000 	call	83900 <__muldf3>
   819a8:	022f6d74 	movhi	r8,48565
   819ac:	422c7104 	addi	r8,r8,-20028
   819b0:	024f88b4 	movhi	r9,15906
   819b4:	4a7ba784 	addi	r9,r9,-4450
   819b8:	480f883a 	mov	r7,r9
   819bc:	400d883a 	mov	r6,r8
   819c0:	180b883a 	mov	r5,r3
   819c4:	1009883a 	mov	r4,r2
   819c8:	008388c0 	call	8388c <__adddf3>
   819cc:	180f883a 	mov	r7,r3
   819d0:	8009883a 	mov	r4,r16
   819d4:	880b883a 	mov	r5,r17
   819d8:	100d883a 	mov	r6,r2
   819dc:	00839000 	call	83900 <__muldf3>
   819e0:	02202734 	movhi	r8,32924
   819e4:	4214ab44 	addi	r8,r8,21165
   819e8:	024fa4b4 	movhi	r9,16018
   819ec:	4a5f93c4 	addi	r9,r9,32335
   819f0:	480f883a 	mov	r7,r9
   819f4:	400d883a 	mov	r6,r8
   819f8:	180b883a 	mov	r5,r3
   819fc:	1009883a 	mov	r4,r2
   81a00:	008380c0 	call	8380c <__subdf3>
   81a04:	180f883a 	mov	r7,r3
   81a08:	8009883a 	mov	r4,r16
   81a0c:	880b883a 	mov	r5,r17
   81a10:	100d883a 	mov	r6,r2
   81a14:	00839000 	call	83900 <__muldf3>
   81a18:	020672f4 	movhi	r8,6603
   81a1c:	42056404 	addi	r8,r8,5520
   81a20:	024fbeb4 	movhi	r9,16122
   81a24:	4a406804 	addi	r9,r9,416
   81a28:	480f883a 	mov	r7,r9
   81a2c:	400d883a 	mov	r6,r8
   81a30:	180b883a 	mov	r5,r3
   81a34:	1009883a 	mov	r4,r2
   81a38:	008388c0 	call	8388c <__adddf3>
   81a3c:	180f883a 	mov	r7,r3
   81a40:	8009883a 	mov	r4,r16
   81a44:	880b883a 	mov	r5,r17
   81a48:	100d883a 	mov	r6,r2
   81a4c:	00839000 	call	83900 <__muldf3>
   81a50:	0205b074 	movhi	r8,5825
   81a54:	42145dc4 	addi	r8,r8,20855
   81a58:	024fd5f4 	movhi	r9,16215
   81a5c:	4a705b04 	addi	r9,r9,-16020
   81a60:	480f883a 	mov	r7,r9
   81a64:	400d883a 	mov	r6,r8
   81a68:	180b883a 	mov	r5,r3
   81a6c:	1009883a 	mov	r4,r2
   81a70:	008380c0 	call	8380c <__subdf3>
   81a74:	180f883a 	mov	r7,r3
   81a78:	8009883a 	mov	r4,r16
   81a7c:	880b883a 	mov	r5,r17
   81a80:	100d883a 	mov	r6,r2
   81a84:	00839000 	call	83900 <__muldf3>
   81a88:	02155574 	movhi	r8,21845
   81a8c:	42155304 	addi	r8,r8,21836
   81a90:	024fe974 	movhi	r9,16293
   81a94:	4a555544 	addi	r9,r9,21845
   81a98:	480f883a 	mov	r7,r9
   81a9c:	400d883a 	mov	r6,r8
   81aa0:	180b883a 	mov	r5,r3
   81aa4:	1009883a 	mov	r4,r2
   81aa8:	008388c0 	call	8388c <__adddf3>
   81aac:	180f883a 	mov	r7,r3
   81ab0:	880b883a 	mov	r5,r17
   81ab4:	8009883a 	mov	r4,r16
   81ab8:	100d883a 	mov	r6,r2
   81abc:	00839000 	call	83900 <__muldf3>
   81ac0:	1021883a 	mov	r16,r2
   81ac4:	1823883a 	mov	r17,r3
   81ac8:	0005883a 	mov	r2,zero
   81acc:	00cff834 	movhi	r3,16352
   81ad0:	9009883a 	mov	r4,r18
   81ad4:	980b883a 	mov	r5,r19
   81ad8:	180f883a 	mov	r7,r3
   81adc:	100d883a 	mov	r6,r2
   81ae0:	00839000 	call	83900 <__muldf3>
   81ae4:	980b883a 	mov	r5,r19
   81ae8:	880f883a 	mov	r7,r17
   81aec:	9009883a 	mov	r4,r18
   81af0:	800d883a 	mov	r6,r16
   81af4:	1025883a 	mov	r18,r2
   81af8:	1827883a 	mov	r19,r3
   81afc:	00839000 	call	83900 <__muldf3>
   81b00:	d9c00517 	ldw	r7,20(sp)
   81b04:	d9800417 	ldw	r6,16(sp)
   81b08:	a80b883a 	mov	r5,r21
   81b0c:	a009883a 	mov	r4,r20
   81b10:	1021883a 	mov	r16,r2
   81b14:	1823883a 	mov	r17,r3
   81b18:	00839000 	call	83900 <__muldf3>
   81b1c:	180f883a 	mov	r7,r3
   81b20:	880b883a 	mov	r5,r17
   81b24:	8009883a 	mov	r4,r16
   81b28:	100d883a 	mov	r6,r2
   81b2c:	008380c0 	call	8380c <__subdf3>
   81b30:	180f883a 	mov	r7,r3
   81b34:	980b883a 	mov	r5,r19
   81b38:	9009883a 	mov	r4,r18
   81b3c:	100d883a 	mov	r6,r2
   81b40:	008380c0 	call	8380c <__subdf3>
   81b44:	0011883a 	mov	r8,zero
   81b48:	024ffc34 	movhi	r9,16368
   81b4c:	480b883a 	mov	r5,r9
   81b50:	180f883a 	mov	r7,r3
   81b54:	4009883a 	mov	r4,r8
   81b58:	100d883a 	mov	r6,r2
   81b5c:	008380c0 	call	8380c <__subdf3>
   81b60:	100d883a 	mov	r6,r2
   81b64:	180f883a 	mov	r7,r3
   81b68:	3005883a 	mov	r2,r6
   81b6c:	3807883a 	mov	r3,r7
   81b70:	dfc00e17 	ldw	ra,56(sp)
   81b74:	ddc00d17 	ldw	r23,52(sp)
   81b78:	dd800c17 	ldw	r22,48(sp)
   81b7c:	dd400b17 	ldw	r21,44(sp)
   81b80:	dd000a17 	ldw	r20,40(sp)
   81b84:	dcc00917 	ldw	r19,36(sp)
   81b88:	dc800817 	ldw	r18,32(sp)
   81b8c:	dc400717 	ldw	r17,28(sp)
   81b90:	dc000617 	ldw	r16,24(sp)
   81b94:	dec00f04 	addi	sp,sp,60
   81b98:	f800283a 	ret
   81b9c:	280f883a 	mov	r7,r5
   81ba0:	a009883a 	mov	r4,r20
   81ba4:	a00d883a 	mov	r6,r20
   81ba8:	00839000 	call	83900 <__muldf3>
   81bac:	1021883a 	mov	r16,r2
   81bb0:	1823883a 	mov	r17,r3
   81bb4:	1025883a 	mov	r18,r2
   81bb8:	1827883a 	mov	r19,r3
   81bbc:	00afa234 	movhi	r2,48776
   81bc0:	108e3504 	addi	r2,r2,14548
   81bc4:	00ef6a74 	movhi	r3,48553
   81bc8:	18feba44 	addi	r3,r3,-1303
   81bcc:	8009883a 	mov	r4,r16
   81bd0:	880b883a 	mov	r5,r17
   81bd4:	180f883a 	mov	r7,r3
   81bd8:	100d883a 	mov	r6,r2
   81bdc:	00839000 	call	83900 <__muldf3>
   81be0:	022f6d74 	movhi	r8,48565
   81be4:	422c7104 	addi	r8,r8,-20028
   81be8:	024f88b4 	movhi	r9,15906
   81bec:	4a7ba784 	addi	r9,r9,-4450
   81bf0:	480f883a 	mov	r7,r9
   81bf4:	400d883a 	mov	r6,r8
   81bf8:	180b883a 	mov	r5,r3
   81bfc:	1009883a 	mov	r4,r2
   81c00:	008388c0 	call	8388c <__adddf3>
   81c04:	180f883a 	mov	r7,r3
   81c08:	8009883a 	mov	r4,r16
   81c0c:	880b883a 	mov	r5,r17
   81c10:	100d883a 	mov	r6,r2
   81c14:	00839000 	call	83900 <__muldf3>
   81c18:	02202734 	movhi	r8,32924
   81c1c:	4214ab44 	addi	r8,r8,21165
   81c20:	024fa4b4 	movhi	r9,16018
   81c24:	4a5f93c4 	addi	r9,r9,32335
   81c28:	480f883a 	mov	r7,r9
   81c2c:	400d883a 	mov	r6,r8
   81c30:	180b883a 	mov	r5,r3
   81c34:	1009883a 	mov	r4,r2
   81c38:	008380c0 	call	8380c <__subdf3>
   81c3c:	180f883a 	mov	r7,r3
   81c40:	8009883a 	mov	r4,r16
   81c44:	880b883a 	mov	r5,r17
   81c48:	100d883a 	mov	r6,r2
   81c4c:	00839000 	call	83900 <__muldf3>
   81c50:	020672f4 	movhi	r8,6603
   81c54:	42056404 	addi	r8,r8,5520
   81c58:	024fbeb4 	movhi	r9,16122
   81c5c:	4a406804 	addi	r9,r9,416
   81c60:	480f883a 	mov	r7,r9
   81c64:	400d883a 	mov	r6,r8
   81c68:	180b883a 	mov	r5,r3
   81c6c:	1009883a 	mov	r4,r2
   81c70:	008388c0 	call	8388c <__adddf3>
   81c74:	180f883a 	mov	r7,r3
   81c78:	8009883a 	mov	r4,r16
   81c7c:	880b883a 	mov	r5,r17
   81c80:	100d883a 	mov	r6,r2
   81c84:	00839000 	call	83900 <__muldf3>
   81c88:	0205b074 	movhi	r8,5825
   81c8c:	42145dc4 	addi	r8,r8,20855
   81c90:	024fd5f4 	movhi	r9,16215
   81c94:	4a705b04 	addi	r9,r9,-16020
   81c98:	480f883a 	mov	r7,r9
   81c9c:	400d883a 	mov	r6,r8
   81ca0:	180b883a 	mov	r5,r3
   81ca4:	1009883a 	mov	r4,r2
   81ca8:	008380c0 	call	8380c <__subdf3>
   81cac:	180f883a 	mov	r7,r3
   81cb0:	8009883a 	mov	r4,r16
   81cb4:	880b883a 	mov	r5,r17
   81cb8:	100d883a 	mov	r6,r2
   81cbc:	00839000 	call	83900 <__muldf3>
   81cc0:	02155574 	movhi	r8,21845
   81cc4:	42155304 	addi	r8,r8,21836
   81cc8:	024fe974 	movhi	r9,16293
   81ccc:	4a555544 	addi	r9,r9,21845
   81cd0:	480f883a 	mov	r7,r9
   81cd4:	400d883a 	mov	r6,r8
   81cd8:	180b883a 	mov	r5,r3
   81cdc:	1009883a 	mov	r4,r2
   81ce0:	008388c0 	call	8388c <__adddf3>
   81ce4:	180f883a 	mov	r7,r3
   81ce8:	880b883a 	mov	r5,r17
   81cec:	8009883a 	mov	r4,r16
   81cf0:	100d883a 	mov	r6,r2
   81cf4:	00839000 	call	83900 <__muldf3>
   81cf8:	1021883a 	mov	r16,r2
   81cfc:	008ff4f4 	movhi	r2,16339
   81d00:	108ccc84 	addi	r2,r2,13106
   81d04:	1823883a 	mov	r17,r3
   81d08:	15bf6f0e 	bge	r2,r22,81ac8 <__kernel_cos+0x1d4>
   81d0c:	008ffa74 	movhi	r2,16361
   81d10:	1580320e 	bge	r2,r22,81ddc <__kernel_cos+0x4e8>
   81d14:	0005883a 	mov	r2,zero
   81d18:	010ff9f4 	movhi	r4,16359
   81d1c:	002d883a 	mov	r22,zero
   81d20:	d8800015 	stw	r2,0(sp)
   81d24:	05cff4b4 	movhi	r23,16338
   81d28:	d9000115 	stw	r4,4(sp)
   81d2c:	0005883a 	mov	r2,zero
   81d30:	00cff834 	movhi	r3,16352
   81d34:	9009883a 	mov	r4,r18
   81d38:	980b883a 	mov	r5,r19
   81d3c:	180f883a 	mov	r7,r3
   81d40:	100d883a 	mov	r6,r2
   81d44:	00839000 	call	83900 <__muldf3>
   81d48:	180b883a 	mov	r5,r3
   81d4c:	b80f883a 	mov	r7,r23
   81d50:	1009883a 	mov	r4,r2
   81d54:	b00d883a 	mov	r6,r22
   81d58:	008380c0 	call	8380c <__subdf3>
   81d5c:	980b883a 	mov	r5,r19
   81d60:	880f883a 	mov	r7,r17
   81d64:	9009883a 	mov	r4,r18
   81d68:	800d883a 	mov	r6,r16
   81d6c:	1025883a 	mov	r18,r2
   81d70:	1827883a 	mov	r19,r3
   81d74:	00839000 	call	83900 <__muldf3>
   81d78:	d9c00517 	ldw	r7,20(sp)
   81d7c:	d9800417 	ldw	r6,16(sp)
   81d80:	a80b883a 	mov	r5,r21
   81d84:	a009883a 	mov	r4,r20
   81d88:	1021883a 	mov	r16,r2
   81d8c:	1823883a 	mov	r17,r3
   81d90:	00839000 	call	83900 <__muldf3>
   81d94:	180f883a 	mov	r7,r3
   81d98:	880b883a 	mov	r5,r17
   81d9c:	8009883a 	mov	r4,r16
   81da0:	100d883a 	mov	r6,r2
   81da4:	008380c0 	call	8380c <__subdf3>
   81da8:	180f883a 	mov	r7,r3
   81dac:	980b883a 	mov	r5,r19
   81db0:	9009883a 	mov	r4,r18
   81db4:	100d883a 	mov	r6,r2
   81db8:	008380c0 	call	8380c <__subdf3>
   81dbc:	d9400117 	ldw	r5,4(sp)
   81dc0:	d9000017 	ldw	r4,0(sp)
   81dc4:	180f883a 	mov	r7,r3
   81dc8:	100d883a 	mov	r6,r2
   81dcc:	003f6306 	br	81b5c <__kernel_cos+0x268>
   81dd0:	000d883a 	mov	r6,zero
   81dd4:	01cffc34 	movhi	r7,16368
   81dd8:	003f6306 	br	81b68 <__kernel_cos+0x274>
   81ddc:	00bff834 	movhi	r2,65504
   81de0:	b0ad883a 	add	r22,r22,r2
   81de4:	dd800315 	stw	r22,12(sp)
   81de8:	d9000317 	ldw	r4,12(sp)
   81dec:	0005883a 	mov	r2,zero
   81df0:	00cffc34 	movhi	r3,16368
   81df4:	002d883a 	mov	r22,zero
   81df8:	200f883a 	mov	r7,r4
   81dfc:	202f883a 	mov	r23,r4
   81e00:	180b883a 	mov	r5,r3
   81e04:	1009883a 	mov	r4,r2
   81e08:	b00d883a 	mov	r6,r22
   81e0c:	d8800215 	stw	r2,8(sp)
   81e10:	008380c0 	call	8380c <__subdf3>
   81e14:	d8800015 	stw	r2,0(sp)
   81e18:	d8c00115 	stw	r3,4(sp)
   81e1c:	003fc306 	br	81d2c <__kernel_cos+0x438>

00081e20 <__kernel_rem_pio2>:
   81e20:	deff5304 	addi	sp,sp,-692
   81e24:	d880ad17 	ldw	r2,692(sp)
   81e28:	d9009615 	stw	r4,600(sp)
   81e2c:	d9409715 	stw	r5,604(sp)
   81e30:	1087883a 	add	r3,r2,r2
   81e34:	18c7883a 	add	r3,r3,r3
   81e38:	00800274 	movhi	r2,9
   81e3c:	108aaf04 	addi	r2,r2,10940
   81e40:	1887883a 	add	r3,r3,r2
   81e44:	18c00017 	ldw	r3,0(r3)
   81e48:	313fff44 	addi	r4,r6,-3
   81e4c:	01400604 	movi	r5,24
   81e50:	df00ab15 	stw	fp,684(sp)
   81e54:	dc00a315 	stw	r16,652(sp)
   81e58:	d8c09515 	stw	r3,596(sp)
   81e5c:	dfc0ac15 	stw	ra,688(sp)
   81e60:	ddc0aa15 	stw	r23,680(sp)
   81e64:	dd80a915 	stw	r22,676(sp)
   81e68:	dd40a815 	stw	r21,672(sp)
   81e6c:	dd00a715 	stw	r20,668(sp)
   81e70:	dcc0a615 	stw	r19,664(sp)
   81e74:	dc80a515 	stw	r18,660(sp)
   81e78:	dc40a415 	stw	r17,656(sp)
   81e7c:	3021883a 	mov	r16,r6
   81e80:	d9c09815 	stw	r7,608(sp)
   81e84:	00843000 	call	84300 <__divsi3>
   81e88:	d8c09817 	ldw	r3,608(sp)
   81e8c:	d8808c15 	stw	r2,560(sp)
   81e90:	1f3fffc4 	addi	fp,r3,-1
   81e94:	10031a16 	blt	r2,zero,82b00 <__kernel_rem_pio2+0xce0>
   81e98:	d9008c17 	ldw	r4,560(sp)
   81e9c:	017ffa04 	movi	r5,-24
   81ea0:	00843d00 	call	843d0 <__mulsi3>
   81ea4:	d9009517 	ldw	r4,596(sp)
   81ea8:	8085883a 	add	r2,r16,r2
   81eac:	10bffa04 	addi	r2,r2,-24
   81eb0:	2707883a 	add	r3,r4,fp
   81eb4:	d8809315 	stw	r2,588(sp)
   81eb8:	18001616 	blt	r3,zero,81f14 <__kernel_rem_pio2+0xf4>
   81ebc:	d9408c17 	ldw	r5,560(sp)
   81ec0:	d980ae17 	ldw	r6,696(sp)
   81ec4:	dc801404 	addi	r18,sp,80
   81ec8:	2f21c83a 	sub	r16,r5,fp
   81ecc:	8405883a 	add	r2,r16,r16
   81ed0:	1085883a 	add	r2,r2,r2
   81ed4:	30a3883a 	add	r17,r6,r2
   81ed8:	80e7883a 	add	r19,r16,r3
   81edc:	00000106 	br	81ee4 <__kernel_rem_pio2+0xc4>
   81ee0:	84000044 	addi	r16,r16,1
   81ee4:	0009883a 	mov	r4,zero
   81ee8:	000b883a 	mov	r5,zero
   81eec:	80000416 	blt	r16,zero,81f00 <__kernel_rem_pio2+0xe0>
   81ef0:	89000017 	ldw	r4,0(r17)
   81ef4:	00840b40 	call	840b4 <__floatsidf>
   81ef8:	1009883a 	mov	r4,r2
   81efc:	180b883a 	mov	r5,r3
   81f00:	91400115 	stw	r5,4(r18)
   81f04:	91000015 	stw	r4,0(r18)
   81f08:	8c400104 	addi	r17,r17,4
   81f0c:	94800204 	addi	r18,r18,8
   81f10:	84fff31e 	bne	r16,r19,81ee0 <__kernel_rem_pio2+0xc0>
   81f14:	d9c09517 	ldw	r7,596(sp)
   81f18:	38002416 	blt	r7,zero,81fac <__kernel_rem_pio2+0x18c>
   81f1c:	da809817 	ldw	r10,608(sp)
   81f20:	e029883a 	mov	r20,fp
   81f24:	dd406404 	addi	r21,sp,400
   81f28:	3aaf883a 	add	r23,r7,r10
   81f2c:	e02c403a 	cmpge	r22,fp,zero
   81f30:	b0023e26 	beq	r22,zero,8282c <__kernel_rem_pio2+0xa0c>
   81f34:	dcc09617 	ldw	r19,600(sp)
   81f38:	0021883a 	mov	r16,zero
   81f3c:	0025883a 	mov	r18,zero
   81f40:	0023883a 	mov	r17,zero
   81f44:	a489c83a 	sub	r4,r20,r18
   81f48:	200890fa 	slli	r4,r4,3
   81f4c:	99800017 	ldw	r6,0(r19)
   81f50:	99c00117 	ldw	r7,4(r19)
   81f54:	26c9883a 	add	r4,r4,sp
   81f58:	20c01517 	ldw	r3,84(r4)
   81f5c:	20801417 	ldw	r2,80(r4)
   81f60:	94800044 	addi	r18,r18,1
   81f64:	180b883a 	mov	r5,r3
   81f68:	1009883a 	mov	r4,r2
   81f6c:	00839000 	call	83900 <__muldf3>
   81f70:	180f883a 	mov	r7,r3
   81f74:	880b883a 	mov	r5,r17
   81f78:	8009883a 	mov	r4,r16
   81f7c:	100d883a 	mov	r6,r2
   81f80:	008388c0 	call	8388c <__adddf3>
   81f84:	1021883a 	mov	r16,r2
   81f88:	d8809817 	ldw	r2,608(sp)
   81f8c:	9cc00204 	addi	r19,r19,8
   81f90:	1823883a 	mov	r17,r3
   81f94:	14bfeb1e 	bne	r2,r18,81f44 <__kernel_rem_pio2+0x124>
   81f98:	a5000044 	addi	r20,r20,1
   81f9c:	ac400115 	stw	r17,4(r21)
   81fa0:	ac000015 	stw	r16,0(r21)
   81fa4:	ad400204 	addi	r21,r21,8
   81fa8:	a5ffe11e 	bne	r20,r23,81f30 <__kernel_rem_pio2+0x110>
   81fac:	d8c09517 	ldw	r3,596(sp)
   81fb0:	d9409317 	ldw	r5,588(sp)
   81fb4:	e038403a 	cmpge	fp,fp,zero
   81fb8:	d8c08d15 	stw	r3,564(sp)
   81fbc:	d9008d17 	ldw	r4,564(sp)
   81fc0:	18c5883a 	add	r2,r3,r3
   81fc4:	10c7883a 	add	r3,r2,r3
   81fc8:	1907883a 	add	r3,r3,r4
   81fcc:	1085883a 	add	r2,r2,r2
   81fd0:	16c5883a 	add	r2,r2,sp
   81fd4:	1ec7883a 	add	r3,r3,sp
   81fd8:	29400050 	cmplti	r5,r5,1
   81fdc:	df00a215 	stw	fp,648(sp)
   81fe0:	d8809915 	stw	r2,612(sp)
   81fe4:	d8c0a115 	stw	r3,644(sp)
   81fe8:	d940a015 	stw	r5,640(sp)
   81fec:	d9808d17 	ldw	r6,564(sp)
   81ff0:	300490fa 	slli	r2,r6,3
   81ff4:	16c5883a 	add	r2,r2,sp
   81ff8:	15006417 	ldw	r20,400(r2)
   81ffc:	15406517 	ldw	r21,404(r2)
   82000:	01802e0e 	bge	zero,r6,820bc <__kernel_rem_pio2+0x29c>
   82004:	102d883a 	mov	r22,r2
   82008:	302f883a 	mov	r23,r6
   8200c:	d839883a 	mov	fp,sp
   82010:	0005883a 	mov	r2,zero
   82014:	00cf9c34 	movhi	r3,15984
   82018:	180f883a 	mov	r7,r3
   8201c:	100d883a 	mov	r6,r2
   82020:	a009883a 	mov	r4,r20
   82024:	a80b883a 	mov	r5,r21
   82028:	00839000 	call	83900 <__muldf3>
   8202c:	180b883a 	mov	r5,r3
   82030:	1009883a 	mov	r4,r2
   82034:	00841ac0 	call	841ac <__fixdfsi>
   82038:	1009883a 	mov	r4,r2
   8203c:	00840b40 	call	840b4 <__floatsidf>
   82040:	1021883a 	mov	r16,r2
   82044:	1823883a 	mov	r17,r3
   82048:	0005883a 	mov	r2,zero
   8204c:	00f05c34 	movhi	r3,49520
   82050:	180f883a 	mov	r7,r3
   82054:	8009883a 	mov	r4,r16
   82058:	880b883a 	mov	r5,r17
   8205c:	100d883a 	mov	r6,r2
   82060:	00839000 	call	83900 <__muldf3>
   82064:	180b883a 	mov	r5,r3
   82068:	a80f883a 	mov	r7,r21
   8206c:	a00d883a 	mov	r6,r20
   82070:	1009883a 	mov	r4,r2
   82074:	008388c0 	call	8388c <__adddf3>
   82078:	180b883a 	mov	r5,r3
   8207c:	1009883a 	mov	r4,r2
   82080:	00841ac0 	call	841ac <__fixdfsi>
   82084:	e0800015 	stw	r2,0(fp)
   82088:	b5bffe04 	addi	r22,r22,-8
   8208c:	b0806417 	ldw	r2,400(r22)
   82090:	b0c06517 	ldw	r3,404(r22)
   82094:	8009883a 	mov	r4,r16
   82098:	880b883a 	mov	r5,r17
   8209c:	180f883a 	mov	r7,r3
   820a0:	100d883a 	mov	r6,r2
   820a4:	008388c0 	call	8388c <__adddf3>
   820a8:	bdffffc4 	addi	r23,r23,-1
   820ac:	e7000104 	addi	fp,fp,4
   820b0:	1029883a 	mov	r20,r2
   820b4:	182b883a 	mov	r21,r3
   820b8:	b83fd51e 	bne	r23,zero,82010 <__kernel_rem_pio2+0x1f0>
   820bc:	d9809317 	ldw	r6,588(sp)
   820c0:	a80b883a 	mov	r5,r21
   820c4:	a009883a 	mov	r4,r20
   820c8:	00831f80 	call	831f8 <scalbn>
   820cc:	0009883a 	mov	r4,zero
   820d0:	014ff034 	movhi	r5,16320
   820d4:	280f883a 	mov	r7,r5
   820d8:	200d883a 	mov	r6,r4
   820dc:	180b883a 	mov	r5,r3
   820e0:	1009883a 	mov	r4,r2
   820e4:	1021883a 	mov	r16,r2
   820e8:	1823883a 	mov	r17,r3
   820ec:	00839000 	call	83900 <__muldf3>
   820f0:	180b883a 	mov	r5,r3
   820f4:	1009883a 	mov	r4,r2
   820f8:	0082fd40 	call	82fd4 <floor>
   820fc:	0011883a 	mov	r8,zero
   82100:	02700834 	movhi	r9,49184
   82104:	480f883a 	mov	r7,r9
   82108:	400d883a 	mov	r6,r8
   8210c:	180b883a 	mov	r5,r3
   82110:	1009883a 	mov	r4,r2
   82114:	00839000 	call	83900 <__muldf3>
   82118:	180f883a 	mov	r7,r3
   8211c:	100d883a 	mov	r6,r2
   82120:	880b883a 	mov	r5,r17
   82124:	8009883a 	mov	r4,r16
   82128:	008388c0 	call	8388c <__adddf3>
   8212c:	180b883a 	mov	r5,r3
   82130:	1009883a 	mov	r4,r2
   82134:	1823883a 	mov	r17,r3
   82138:	1021883a 	mov	r16,r2
   8213c:	00841ac0 	call	841ac <__fixdfsi>
   82140:	1009883a 	mov	r4,r2
   82144:	d8809415 	stw	r2,592(sp)
   82148:	00840b40 	call	840b4 <__floatsidf>
   8214c:	880b883a 	mov	r5,r17
   82150:	8009883a 	mov	r4,r16
   82154:	180f883a 	mov	r7,r3
   82158:	100d883a 	mov	r6,r2
   8215c:	008380c0 	call	8380c <__subdf3>
   82160:	d9c0a017 	ldw	r7,640(sp)
   82164:	180d883a 	mov	r6,r3
   82168:	1021883a 	mov	r16,r2
   8216c:	1823883a 	mov	r17,r3
   82170:	38017d1e 	bne	r7,zero,82768 <__kernel_rem_pio2+0x948>
   82174:	da808d17 	ldw	r10,564(sp)
   82178:	d9009317 	ldw	r4,588(sp)
   8217c:	00c00604 	movi	r3,24
   82180:	50bfffc4 	addi	r2,r10,-1
   82184:	1085883a 	add	r2,r2,r2
   82188:	1085883a 	add	r2,r2,r2
   8218c:	16c5883a 	add	r2,r2,sp
   82190:	11400017 	ldw	r5,0(r2)
   82194:	1907c83a 	sub	r3,r3,r4
   82198:	d9c09317 	ldw	r7,588(sp)
   8219c:	28cdd83a 	sra	r6,r5,r3
   821a0:	010005c4 	movi	r4,23
   821a4:	da809417 	ldw	r10,592(sp)
   821a8:	30c6983a 	sll	r3,r6,r3
   821ac:	21c9c83a 	sub	r4,r4,r7
   821b0:	5195883a 	add	r10,r10,r6
   821b4:	28cbc83a 	sub	r5,r5,r3
   821b8:	2909d83a 	sra	r4,r5,r4
   821bc:	da809415 	stw	r10,592(sp)
   821c0:	11400015 	stw	r5,0(r2)
   821c4:	d9009215 	stw	r4,584(sp)
   821c8:	d9409217 	ldw	r5,584(sp)
   821cc:	0140270e 	bge	zero,r5,8226c <__kernel_rem_pio2+0x44c>
   821d0:	d9809417 	ldw	r6,592(sp)
   821d4:	d9c08d17 	ldw	r7,564(sp)
   821d8:	31800044 	addi	r6,r6,1
   821dc:	d9809415 	stw	r6,592(sp)
   821e0:	01c1a50e 	bge	zero,r7,82878 <__kernel_rem_pio2+0xa58>
   821e4:	002d883a 	mov	r22,zero
   821e8:	000b883a 	mov	r5,zero
   821ec:	d809883a 	mov	r4,sp
   821f0:	01c04034 	movhi	r7,256
   821f4:	01804034 	movhi	r6,256
   821f8:	31bfffc4 	addi	r6,r6,-1
   821fc:	00000806 	br	82220 <__kernel_rem_pio2+0x400>
   82200:	38c5c83a 	sub	r2,r7,r3
   82204:	18000226 	beq	r3,zero,82210 <__kernel_rem_pio2+0x3f0>
   82208:	05800044 	movi	r22,1
   8220c:	20800015 	stw	r2,0(r4)
   82210:	da808d17 	ldw	r10,564(sp)
   82214:	29400044 	addi	r5,r5,1
   82218:	21000104 	addi	r4,r4,4
   8221c:	51400926 	beq	r10,r5,82244 <__kernel_rem_pio2+0x424>
   82220:	b004c03a 	cmpne	r2,r22,zero
   82224:	20c00017 	ldw	r3,0(r4)
   82228:	103ff526 	beq	r2,zero,82200 <__kernel_rem_pio2+0x3e0>
   8222c:	da808d17 	ldw	r10,564(sp)
   82230:	30c5c83a 	sub	r2,r6,r3
   82234:	29400044 	addi	r5,r5,1
   82238:	20800015 	stw	r2,0(r4)
   8223c:	21000104 	addi	r4,r4,4
   82240:	517ff71e 	bne	r10,r5,82220 <__kernel_rem_pio2+0x400>
   82244:	d880a017 	ldw	r2,640(sp)
   82248:	1000051e 	bne	r2,zero,82260 <__kernel_rem_pio2+0x440>
   8224c:	d8c09317 	ldw	r3,588(sp)
   82250:	00800044 	movi	r2,1
   82254:	18814e26 	beq	r3,r2,82790 <__kernel_rem_pio2+0x970>
   82258:	00800084 	movi	r2,2
   8225c:	18815826 	beq	r3,r2,827c0 <__kernel_rem_pio2+0x9a0>
   82260:	d9c09217 	ldw	r7,584(sp)
   82264:	00800084 	movi	r2,2
   82268:	38806926 	beq	r7,r2,82410 <__kernel_rem_pio2+0x5f0>
   8226c:	000d883a 	mov	r6,zero
   82270:	000f883a 	mov	r7,zero
   82274:	8009883a 	mov	r4,r16
   82278:	880b883a 	mov	r5,r17
   8227c:	0083f1c0 	call	83f1c <__eqdf2>
   82280:	1000811e 	bne	r2,zero,82488 <__kernel_rem_pio2+0x668>
   82284:	da808d17 	ldw	r10,564(sp)
   82288:	d8809517 	ldw	r2,596(sp)
   8228c:	51bfffc4 	addi	r6,r10,-1
   82290:	30800c16 	blt	r6,r2,822c4 <__kernel_rem_pio2+0x4a4>
   82294:	3185883a 	add	r2,r6,r6
   82298:	1085883a 	add	r2,r2,r2
   8229c:	16c9883a 	add	r4,r2,sp
   822a0:	3007883a 	mov	r3,r6
   822a4:	000b883a 	mov	r5,zero
   822a8:	20800017 	ldw	r2,0(r4)
   822ac:	d9c09517 	ldw	r7,596(sp)
   822b0:	18ffffc4 	addi	r3,r3,-1
   822b4:	213fff04 	addi	r4,r4,-4
   822b8:	288ab03a 	or	r5,r5,r2
   822bc:	19fffa0e 	bge	r3,r7,822a8 <__kernel_rem_pio2+0x488>
   822c0:	2800791e 	bne	r5,zero,824a8 <__kernel_rem_pio2+0x688>
   822c4:	da809917 	ldw	r10,612(sp)
   822c8:	50bfff17 	ldw	r2,-4(r10)
   822cc:	1001511e 	bne	r2,zero,82814 <__kernel_rem_pio2+0x9f4>
   822d0:	d880a117 	ldw	r2,644(sp)
   822d4:	01000044 	movi	r4,1
   822d8:	10ffff04 	addi	r3,r2,-4
   822dc:	18ffff04 	addi	r3,r3,-4
   822e0:	18800017 	ldw	r2,0(r3)
   822e4:	21000044 	addi	r4,r4,1
   822e8:	103ffc26 	beq	r2,zero,822dc <__kernel_rem_pio2+0x4bc>
   822ec:	d8c08d17 	ldw	r3,564(sp)
   822f0:	192f883a 	add	r23,r3,r4
   822f4:	1f000044 	addi	fp,r3,1
   822f8:	bf00020e 	bge	r23,fp,82304 <__kernel_rem_pio2+0x4e4>
   822fc:	ddc08d15 	stw	r23,564(sp)
   82300:	003f3a06 	br	81fec <__kernel_rem_pio2+0x1cc>
   82304:	d9408c17 	ldw	r5,560(sp)
   82308:	d9009817 	ldw	r4,608(sp)
   8230c:	da80ae17 	ldw	r10,696(sp)
   82310:	1945883a 	add	r2,r3,r5
   82314:	190f883a 	add	r7,r3,r4
   82318:	1085883a 	add	r2,r2,r2
   8231c:	380a90fa 	slli	r5,r7,3
   82320:	e00c90fa 	slli	r6,fp,3
   82324:	1085883a 	add	r2,r2,r2
   82328:	5085883a 	add	r2,r10,r2
   8232c:	d8c01404 	addi	r3,sp,80
   82330:	d9006404 	addi	r4,sp,400
   82334:	10800104 	addi	r2,r2,4
   82338:	196b883a 	add	r21,r3,r5
   8233c:	21a1883a 	add	r16,r4,r6
   82340:	d8809115 	stw	r2,580(sp)
   82344:	d9c09015 	stw	r7,576(sp)
   82348:	d8809117 	ldw	r2,580(sp)
   8234c:	11000017 	ldw	r4,0(r2)
   82350:	00840b40 	call	840b4 <__floatsidf>
   82354:	a8c00115 	stw	r3,4(r21)
   82358:	d8c0a217 	ldw	r3,648(sp)
   8235c:	a8800015 	stw	r2,0(r21)
   82360:	18002826 	beq	r3,zero,82404 <__kernel_rem_pio2+0x5e4>
   82364:	d9009017 	ldw	r4,576(sp)
   82368:	dd009617 	ldw	r20,600(sp)
   8236c:	0023883a 	mov	r17,zero
   82370:	200490fa 	slli	r2,r4,3
   82374:	002d883a 	mov	r22,zero
   82378:	0025883a 	mov	r18,zero
   8237c:	16e7883a 	add	r19,r2,sp
   82380:	98801417 	ldw	r2,80(r19)
   82384:	98c01517 	ldw	r3,84(r19)
   82388:	a1800017 	ldw	r6,0(r20)
   8238c:	a1c00117 	ldw	r7,4(r20)
   82390:	180b883a 	mov	r5,r3
   82394:	1009883a 	mov	r4,r2
   82398:	00839000 	call	83900 <__muldf3>
   8239c:	180f883a 	mov	r7,r3
   823a0:	900b883a 	mov	r5,r18
   823a4:	8809883a 	mov	r4,r17
   823a8:	100d883a 	mov	r6,r2
   823ac:	008388c0 	call	8388c <__adddf3>
   823b0:	d9409817 	ldw	r5,608(sp)
   823b4:	b5800044 	addi	r22,r22,1
   823b8:	9cfffe04 	addi	r19,r19,-8
   823bc:	1023883a 	mov	r17,r2
   823c0:	1825883a 	mov	r18,r3
   823c4:	a5000204 	addi	r20,r20,8
   823c8:	2dbfed1e 	bne	r5,r22,82380 <__kernel_rem_pio2+0x560>
   823cc:	d9809117 	ldw	r6,580(sp)
   823d0:	d9c09017 	ldw	r7,576(sp)
   823d4:	e7000044 	addi	fp,fp,1
   823d8:	31800104 	addi	r6,r6,4
   823dc:	39c00044 	addi	r7,r7,1
   823e0:	84800115 	stw	r18,4(r16)
   823e4:	84400015 	stw	r17,0(r16)
   823e8:	d9809115 	stw	r6,580(sp)
   823ec:	ad400204 	addi	r21,r21,8
   823f0:	84000204 	addi	r16,r16,8
   823f4:	d9c09015 	stw	r7,576(sp)
   823f8:	bf3fd30e 	bge	r23,fp,82348 <__kernel_rem_pio2+0x528>
   823fc:	ddc08d15 	stw	r23,564(sp)
   82400:	003efa06 	br	81fec <__kernel_rem_pio2+0x1cc>
   82404:	0023883a 	mov	r17,zero
   82408:	0025883a 	mov	r18,zero
   8240c:	003fef06 	br	823cc <__kernel_rem_pio2+0x5ac>
   82410:	0029883a 	mov	r20,zero
   82414:	054ffc34 	movhi	r21,16368
   82418:	880f883a 	mov	r7,r17
   8241c:	800d883a 	mov	r6,r16
   82420:	a009883a 	mov	r4,r20
   82424:	a80b883a 	mov	r5,r21
   82428:	008380c0 	call	8380c <__subdf3>
   8242c:	1025883a 	mov	r18,r2
   82430:	b005003a 	cmpeq	r2,r22,zero
   82434:	1827883a 	mov	r19,r3
   82438:	9021883a 	mov	r16,r18
   8243c:	1823883a 	mov	r17,r3
   82440:	103f8a1e 	bne	r2,zero,8226c <__kernel_rem_pio2+0x44c>
   82444:	d9809317 	ldw	r6,588(sp)
   82448:	0009883a 	mov	r4,zero
   8244c:	a80b883a 	mov	r5,r21
   82450:	00831f80 	call	831f8 <scalbn>
   82454:	180f883a 	mov	r7,r3
   82458:	9009883a 	mov	r4,r18
   8245c:	980b883a 	mov	r5,r19
   82460:	100d883a 	mov	r6,r2
   82464:	008380c0 	call	8380c <__subdf3>
   82468:	1021883a 	mov	r16,r2
   8246c:	1823883a 	mov	r17,r3
   82470:	000d883a 	mov	r6,zero
   82474:	000f883a 	mov	r7,zero
   82478:	8009883a 	mov	r4,r16
   8247c:	880b883a 	mov	r5,r17
   82480:	0083f1c0 	call	83f1c <__eqdf2>
   82484:	103f7f26 	beq	r2,zero,82284 <__kernel_rem_pio2+0x464>
   82488:	000d883a 	mov	r6,zero
   8248c:	000f883a 	mov	r7,zero
   82490:	8009883a 	mov	r4,r16
   82494:	880b883a 	mov	r5,r17
   82498:	0083f1c0 	call	83f1c <__eqdf2>
   8249c:	10019a1e 	bne	r2,zero,82b08 <__kernel_rem_pio2+0xce8>
   824a0:	da808d17 	ldw	r10,564(sp)
   824a4:	51bfffc4 	addi	r6,r10,-1
   824a8:	3185883a 	add	r2,r6,r6
   824ac:	1085883a 	add	r2,r2,r2
   824b0:	d9009317 	ldw	r4,588(sp)
   824b4:	16c5883a 	add	r2,r2,sp
   824b8:	10c00017 	ldw	r3,0(r2)
   824bc:	213ffa04 	addi	r4,r4,-24
   824c0:	d9009315 	stw	r4,588(sp)
   824c4:	1801d41e 	bne	r3,zero,82c18 <__kernel_rem_pio2+0xdf8>
   824c8:	d9808d15 	stw	r6,564(sp)
   824cc:	1007883a 	mov	r3,r2
   824d0:	d9408d17 	ldw	r5,564(sp)
   824d4:	d9809317 	ldw	r6,588(sp)
   824d8:	18ffff04 	addi	r3,r3,-4
   824dc:	18800017 	ldw	r2,0(r3)
   824e0:	297fffc4 	addi	r5,r5,-1
   824e4:	31bffa04 	addi	r6,r6,-24
   824e8:	d9408d15 	stw	r5,564(sp)
   824ec:	d9809315 	stw	r6,588(sp)
   824f0:	103ff726 	beq	r2,zero,824d0 <__kernel_rem_pio2+0x6b0>
   824f4:	d9809317 	ldw	r6,588(sp)
   824f8:	0005883a 	mov	r2,zero
   824fc:	00cffc34 	movhi	r3,16368
   82500:	180b883a 	mov	r5,r3
   82504:	1009883a 	mov	r4,r2
   82508:	00831f80 	call	831f8 <scalbn>
   8250c:	d9808d17 	ldw	r6,564(sp)
   82510:	1021883a 	mov	r16,r2
   82514:	1823883a 	mov	r17,r3
   82518:	30004616 	blt	r6,zero,82634 <__kernel_rem_pio2+0x814>
   8251c:	300690fa 	slli	r3,r6,3
   82520:	3185883a 	add	r2,r6,r6
   82524:	1085883a 	add	r2,r2,r2
   82528:	16e9883a 	add	r20,r2,sp
   8252c:	1ee5883a 	add	r18,r3,sp
   82530:	3027883a 	mov	r19,r6
   82534:	057fffc4 	movi	r21,-1
   82538:	a1000017 	ldw	r4,0(r20)
   8253c:	9cffffc4 	addi	r19,r19,-1
   82540:	a53fff04 	addi	r20,r20,-4
   82544:	00840b40 	call	840b4 <__floatsidf>
   82548:	800d883a 	mov	r6,r16
   8254c:	880f883a 	mov	r7,r17
   82550:	180b883a 	mov	r5,r3
   82554:	1009883a 	mov	r4,r2
   82558:	00839000 	call	83900 <__muldf3>
   8255c:	0015883a 	mov	r10,zero
   82560:	02cf9c34 	movhi	r11,15984
   82564:	880b883a 	mov	r5,r17
   82568:	8009883a 	mov	r4,r16
   8256c:	90c06515 	stw	r3,404(r18)
   82570:	90806415 	stw	r2,400(r18)
   82574:	580f883a 	mov	r7,r11
   82578:	500d883a 	mov	r6,r10
   8257c:	00839000 	call	83900 <__muldf3>
   82580:	1021883a 	mov	r16,r2
   82584:	1823883a 	mov	r17,r3
   82588:	94bffe04 	addi	r18,r18,-8
   8258c:	9d7fea1e 	bne	r19,r21,82538 <__kernel_rem_pio2+0x718>
   82590:	d9c09517 	ldw	r7,596(sp)
   82594:	dd808d17 	ldw	r22,564(sp)
   82598:	002b883a 	mov	r21,zero
   8259c:	382e403a 	cmpge	r23,r7,zero
   825a0:	b800aa26 	beq	r23,zero,8284c <__kernel_rem_pio2+0xa2c>
   825a4:	a800a916 	blt	r21,zero,8284c <__kernel_rem_pio2+0xa2c>
   825a8:	b00690fa 	slli	r3,r22,3
   825ac:	d8806404 	addi	r2,sp,400
   825b0:	0021883a 	mov	r16,zero
   825b4:	10e9883a 	add	r20,r2,r3
   825b8:	0027883a 	mov	r19,zero
   825bc:	0023883a 	mov	r17,zero
   825c0:	04800274 	movhi	r18,9
   825c4:	948ab304 	addi	r18,r18,10956
   825c8:	00000106 	br	825d0 <__kernel_rem_pio2+0x7b0>
   825cc:	acc01116 	blt	r21,r19,82614 <__kernel_rem_pio2+0x7f4>
   825d0:	91000017 	ldw	r4,0(r18)
   825d4:	91400117 	ldw	r5,4(r18)
   825d8:	a1800017 	ldw	r6,0(r20)
   825dc:	a1c00117 	ldw	r7,4(r20)
   825e0:	9cc00044 	addi	r19,r19,1
   825e4:	94800204 	addi	r18,r18,8
   825e8:	00839000 	call	83900 <__muldf3>
   825ec:	180f883a 	mov	r7,r3
   825f0:	880b883a 	mov	r5,r17
   825f4:	8009883a 	mov	r4,r16
   825f8:	100d883a 	mov	r6,r2
   825fc:	008388c0 	call	8388c <__adddf3>
   82600:	da809517 	ldw	r10,596(sp)
   82604:	a5000204 	addi	r20,r20,8
   82608:	1021883a 	mov	r16,r2
   8260c:	1823883a 	mov	r17,r3
   82610:	54ffee0e 	bge	r10,r19,825cc <__kernel_rem_pio2+0x7ac>
   82614:	a80490fa 	slli	r2,r21,3
   82618:	b5bfffc4 	addi	r22,r22,-1
   8261c:	ad400044 	addi	r21,r21,1
   82620:	16c5883a 	add	r2,r2,sp
   82624:	14403d15 	stw	r17,244(r2)
   82628:	14003c15 	stw	r16,240(r2)
   8262c:	00bfffc4 	movi	r2,-1
   82630:	b0bfdb1e 	bne	r22,r2,825a0 <__kernel_rem_pio2+0x780>
   82634:	d8c0ad17 	ldw	r3,692(sp)
   82638:	00800084 	movi	r2,2
   8263c:	10c09316 	blt	r2,r3,8288c <__kernel_rem_pio2+0xa6c>
   82640:	00c1120e 	bge	zero,r3,82a8c <__kernel_rem_pio2+0xc6c>
   82644:	d9808d17 	ldw	r6,564(sp)
   82648:	30018d16 	blt	r6,zero,82c80 <__kernel_rem_pio2+0xe60>
   8264c:	d8c08d17 	ldw	r3,564(sp)
   82650:	0011883a 	mov	r8,zero
   82654:	0013883a 	mov	r9,zero
   82658:	180490fa 	slli	r2,r3,3
   8265c:	1823883a 	mov	r17,r3
   82660:	04bfffc4 	movi	r18,-1
   82664:	16e1883a 	add	r16,r2,sp
   82668:	80803c17 	ldw	r2,240(r16)
   8266c:	80c03d17 	ldw	r3,244(r16)
   82670:	480b883a 	mov	r5,r9
   82674:	4009883a 	mov	r4,r8
   82678:	180f883a 	mov	r7,r3
   8267c:	100d883a 	mov	r6,r2
   82680:	008388c0 	call	8388c <__adddf3>
   82684:	8c7fffc4 	addi	r17,r17,-1
   82688:	843ffe04 	addi	r16,r16,-8
   8268c:	1011883a 	mov	r8,r2
   82690:	1813883a 	mov	r9,r3
   82694:	8cbff41e 	bne	r17,r18,82668 <__kernel_rem_pio2+0x848>
   82698:	d9009217 	ldw	r4,584(sp)
   8269c:	20015b1e 	bne	r4,zero,82c0c <__kernel_rem_pio2+0xdec>
   826a0:	4009883a 	mov	r4,r8
   826a4:	480b883a 	mov	r5,r9
   826a8:	d9809717 	ldw	r6,604(sp)
   826ac:	d8803c17 	ldw	r2,240(sp)
   826b0:	480f883a 	mov	r7,r9
   826b4:	31400115 	stw	r5,4(r6)
   826b8:	31000015 	stw	r4,0(r6)
   826bc:	d8c03d17 	ldw	r3,244(sp)
   826c0:	400d883a 	mov	r6,r8
   826c4:	1009883a 	mov	r4,r2
   826c8:	180b883a 	mov	r5,r3
   826cc:	008380c0 	call	8380c <__subdf3>
   826d0:	d9c08d17 	ldw	r7,564(sp)
   826d4:	1011883a 	mov	r8,r2
   826d8:	1813883a 	mov	r9,r3
   826dc:	01c00d0e 	bge	zero,r7,82714 <__kernel_rem_pio2+0x8f4>
   826e0:	0023883a 	mov	r17,zero
   826e4:	dc003e04 	addi	r16,sp,248
   826e8:	81800017 	ldw	r6,0(r16)
   826ec:	81c00117 	ldw	r7,4(r16)
   826f0:	480b883a 	mov	r5,r9
   826f4:	4009883a 	mov	r4,r8
   826f8:	008388c0 	call	8388c <__adddf3>
   826fc:	da808d17 	ldw	r10,564(sp)
   82700:	8c400044 	addi	r17,r17,1
   82704:	1011883a 	mov	r8,r2
   82708:	1813883a 	mov	r9,r3
   8270c:	84000204 	addi	r16,r16,8
   82710:	8abff51e 	bne	r17,r10,826e8 <__kernel_rem_pio2+0x8c8>
   82714:	d8809217 	ldw	r2,584(sp)
   82718:	10000226 	beq	r2,zero,82724 <__kernel_rem_pio2+0x904>
   8271c:	48e0003c 	xorhi	r3,r9,32768
   82720:	1813883a 	mov	r9,r3
   82724:	d8c09717 	ldw	r3,604(sp)
   82728:	1a400315 	stw	r9,12(r3)
   8272c:	1a000215 	stw	r8,8(r3)
   82730:	d8c09417 	ldw	r3,592(sp)
   82734:	188001cc 	andi	r2,r3,7
   82738:	dfc0ac17 	ldw	ra,688(sp)
   8273c:	df00ab17 	ldw	fp,684(sp)
   82740:	ddc0aa17 	ldw	r23,680(sp)
   82744:	dd80a917 	ldw	r22,676(sp)
   82748:	dd40a817 	ldw	r21,672(sp)
   8274c:	dd00a717 	ldw	r20,668(sp)
   82750:	dcc0a617 	ldw	r19,664(sp)
   82754:	dc80a517 	ldw	r18,660(sp)
   82758:	dc40a417 	ldw	r17,656(sp)
   8275c:	dc00a317 	ldw	r16,652(sp)
   82760:	dec0ad04 	addi	sp,sp,692
   82764:	f800283a 	ret
   82768:	d8809317 	ldw	r2,588(sp)
   8276c:	10001f1e 	bne	r2,zero,827ec <__kernel_rem_pio2+0x9cc>
   82770:	d8c08d17 	ldw	r3,564(sp)
   82774:	18c5883a 	add	r2,r3,r3
   82778:	1085883a 	add	r2,r2,r2
   8277c:	16c5883a 	add	r2,r2,sp
   82780:	10ffff17 	ldw	r3,-4(r2)
   82784:	1807d5fa 	srai	r3,r3,23
   82788:	d8c09215 	stw	r3,584(sp)
   8278c:	003e8e06 	br	821c8 <__kernel_rem_pio2+0x3a8>
   82790:	d9008d17 	ldw	r4,564(sp)
   82794:	d9409317 	ldw	r5,588(sp)
   82798:	2145c83a 	sub	r2,r4,r5
   8279c:	1085883a 	add	r2,r2,r2
   827a0:	1085883a 	add	r2,r2,r2
   827a4:	16c5883a 	add	r2,r2,sp
   827a8:	10c00017 	ldw	r3,0(r2)
   827ac:	01002034 	movhi	r4,128
   827b0:	213fffc4 	addi	r4,r4,-1
   827b4:	1906703a 	and	r3,r3,r4
   827b8:	10c00015 	stw	r3,0(r2)
   827bc:	003ea806 	br	82260 <__kernel_rem_pio2+0x440>
   827c0:	d9808d17 	ldw	r6,564(sp)
   827c4:	01001034 	movhi	r4,64
   827c8:	213fffc4 	addi	r4,r4,-1
   827cc:	30bfffc4 	addi	r2,r6,-1
   827d0:	1085883a 	add	r2,r2,r2
   827d4:	1085883a 	add	r2,r2,r2
   827d8:	16c5883a 	add	r2,r2,sp
   827dc:	10c00017 	ldw	r3,0(r2)
   827e0:	1906703a 	and	r3,r3,r4
   827e4:	10c00015 	stw	r3,0(r2)
   827e8:	003e9d06 	br	82260 <__kernel_rem_pio2+0x440>
   827ec:	0005883a 	mov	r2,zero
   827f0:	00cff834 	movhi	r3,16352
   827f4:	300b883a 	mov	r5,r6
   827f8:	180f883a 	mov	r7,r3
   827fc:	8009883a 	mov	r4,r16
   82800:	100d883a 	mov	r6,r2
   82804:	008402c0 	call	8402c <__gedf2>
   82808:	10001d0e 	bge	r2,zero,82880 <__kernel_rem_pio2+0xa60>
   8280c:	d8009215 	stw	zero,584(sp)
   82810:	003e9606 	br	8226c <__kernel_rem_pio2+0x44c>
   82814:	d8c08d17 	ldw	r3,564(sp)
   82818:	01000044 	movi	r4,1
   8281c:	192f883a 	add	r23,r3,r4
   82820:	1f000044 	addi	fp,r3,1
   82824:	bf3eb516 	blt	r23,fp,822fc <__kernel_rem_pio2+0x4dc>
   82828:	003eb606 	br	82304 <__kernel_rem_pio2+0x4e4>
   8282c:	0021883a 	mov	r16,zero
   82830:	0023883a 	mov	r17,zero
   82834:	a5000044 	addi	r20,r20,1
   82838:	ac400115 	stw	r17,4(r21)
   8283c:	ac000015 	stw	r16,0(r21)
   82840:	ad400204 	addi	r21,r21,8
   82844:	a5fdba1e 	bne	r20,r23,81f30 <__kernel_rem_pio2+0x110>
   82848:	003dd806 	br	81fac <__kernel_rem_pio2+0x18c>
   8284c:	a80490fa 	slli	r2,r21,3
   82850:	0021883a 	mov	r16,zero
   82854:	0023883a 	mov	r17,zero
   82858:	16c5883a 	add	r2,r2,sp
   8285c:	14403d15 	stw	r17,244(r2)
   82860:	14003c15 	stw	r16,240(r2)
   82864:	b5bfffc4 	addi	r22,r22,-1
   82868:	00bfffc4 	movi	r2,-1
   8286c:	ad400044 	addi	r21,r21,1
   82870:	b0bf4b1e 	bne	r22,r2,825a0 <__kernel_rem_pio2+0x780>
   82874:	003f6f06 	br	82634 <__kernel_rem_pio2+0x814>
   82878:	002d883a 	mov	r22,zero
   8287c:	003e7106 	br	82244 <__kernel_rem_pio2+0x424>
   82880:	01000084 	movi	r4,2
   82884:	d9009215 	stw	r4,584(sp)
   82888:	003e5106 	br	821d0 <__kernel_rem_pio2+0x3b0>
   8288c:	d900ad17 	ldw	r4,692(sp)
   82890:	008000c4 	movi	r2,3
   82894:	20bfa61e 	bne	r4,r2,82730 <__kernel_rem_pio2+0x910>
   82898:	d9c08d17 	ldw	r7,564(sp)
   8289c:	01c02c0e 	bge	zero,r7,82950 <__kernel_rem_pio2+0xb30>
   828a0:	3805883a 	mov	r2,r7
   828a4:	00000106 	br	828ac <__kernel_rem_pio2+0xa8c>
   828a8:	d8808e17 	ldw	r2,568(sp)
   828ac:	113fffc4 	addi	r4,r2,-1
   828b0:	100690fa 	slli	r3,r2,3
   828b4:	200490fa 	slli	r2,r4,3
   828b8:	d9008e15 	stw	r4,568(sp)
   828bc:	1ef9883a 	add	fp,r3,sp
   828c0:	16c5883a 	add	r2,r2,sp
   828c4:	d8809a15 	stw	r2,616(sp)
   828c8:	11403c04 	addi	r5,r2,240
   828cc:	e1803c04 	addi	r6,fp,240
   828d0:	14003c17 	ldw	r16,240(r2)
   828d4:	e5003c17 	ldw	r20,240(fp)
   828d8:	d9409b15 	stw	r5,620(sp)
   828dc:	d9809c15 	stw	r6,624(sp)
   828e0:	35400117 	ldw	r21,4(r6)
   828e4:	2c400117 	ldw	r17,4(r5)
   828e8:	8009883a 	mov	r4,r16
   828ec:	a00d883a 	mov	r6,r20
   828f0:	880b883a 	mov	r5,r17
   828f4:	a80f883a 	mov	r7,r21
   828f8:	008388c0 	call	8388c <__adddf3>
   828fc:	100d883a 	mov	r6,r2
   82900:	880b883a 	mov	r5,r17
   82904:	8009883a 	mov	r4,r16
   82908:	180f883a 	mov	r7,r3
   8290c:	1025883a 	mov	r18,r2
   82910:	1827883a 	mov	r19,r3
   82914:	008380c0 	call	8380c <__subdf3>
   82918:	180f883a 	mov	r7,r3
   8291c:	a80b883a 	mov	r5,r21
   82920:	a009883a 	mov	r4,r20
   82924:	100d883a 	mov	r6,r2
   82928:	008388c0 	call	8388c <__adddf3>
   8292c:	e0803c15 	stw	r2,240(fp)
   82930:	d9c09c17 	ldw	r7,624(sp)
   82934:	38c00115 	stw	r3,4(r7)
   82938:	da809a17 	ldw	r10,616(sp)
   8293c:	54803c15 	stw	r18,240(r10)
   82940:	d8809b17 	ldw	r2,620(sp)
   82944:	14c00115 	stw	r19,4(r2)
   82948:	d8c08e17 	ldw	r3,568(sp)
   8294c:	183fd61e 	bne	r3,zero,828a8 <__kernel_rem_pio2+0xa88>
   82950:	d9008d17 	ldw	r4,564(sp)
   82954:	00800044 	movi	r2,1
   82958:	1100cc0e 	bge	r2,r4,82c8c <__kernel_rem_pio2+0xe6c>
   8295c:	d8808d17 	ldw	r2,564(sp)
   82960:	117fffc4 	addi	r5,r2,-1
   82964:	100690fa 	slli	r3,r2,3
   82968:	280490fa 	slli	r2,r5,3
   8296c:	d9408f15 	stw	r5,572(sp)
   82970:	1ef9883a 	add	fp,r3,sp
   82974:	16c5883a 	add	r2,r2,sp
   82978:	d8809d15 	stw	r2,628(sp)
   8297c:	11803c04 	addi	r6,r2,240
   82980:	e1c03c04 	addi	r7,fp,240
   82984:	14003c17 	ldw	r16,240(r2)
   82988:	e5003c17 	ldw	r20,240(fp)
   8298c:	d9809e15 	stw	r6,632(sp)
   82990:	d9c09f15 	stw	r7,636(sp)
   82994:	34400117 	ldw	r17,4(r6)
   82998:	3d400117 	ldw	r21,4(r7)
   8299c:	8009883a 	mov	r4,r16
   829a0:	880b883a 	mov	r5,r17
   829a4:	a00d883a 	mov	r6,r20
   829a8:	a80f883a 	mov	r7,r21
   829ac:	008388c0 	call	8388c <__adddf3>
   829b0:	100d883a 	mov	r6,r2
   829b4:	880b883a 	mov	r5,r17
   829b8:	8009883a 	mov	r4,r16
   829bc:	180f883a 	mov	r7,r3
   829c0:	1025883a 	mov	r18,r2
   829c4:	1827883a 	mov	r19,r3
   829c8:	008380c0 	call	8380c <__subdf3>
   829cc:	180f883a 	mov	r7,r3
   829d0:	a80b883a 	mov	r5,r21
   829d4:	a009883a 	mov	r4,r20
   829d8:	100d883a 	mov	r6,r2
   829dc:	008388c0 	call	8388c <__adddf3>
   829e0:	e0803c15 	stw	r2,240(fp)
   829e4:	da809f17 	ldw	r10,636(sp)
   829e8:	50c00115 	stw	r3,4(r10)
   829ec:	d8c09d17 	ldw	r3,628(sp)
   829f0:	d8808f17 	ldw	r2,572(sp)
   829f4:	1c803c15 	stw	r18,240(r3)
   829f8:	d9009e17 	ldw	r4,632(sp)
   829fc:	00c00044 	movi	r3,1
   82a00:	24c00115 	stw	r19,4(r4)
   82a04:	d9408f17 	ldw	r5,572(sp)
   82a08:	28ffd51e 	bne	r5,r3,82960 <__kernel_rem_pio2+0xb40>
   82a0c:	dc008d17 	ldw	r16,564(sp)
   82a10:	0011883a 	mov	r8,zero
   82a14:	1825883a 	mov	r18,r3
   82a18:	800490fa 	slli	r2,r16,3
   82a1c:	0013883a 	mov	r9,zero
   82a20:	16e3883a 	add	r17,r2,sp
   82a24:	88803c17 	ldw	r2,240(r17)
   82a28:	88c03d17 	ldw	r3,244(r17)
   82a2c:	480b883a 	mov	r5,r9
   82a30:	4009883a 	mov	r4,r8
   82a34:	180f883a 	mov	r7,r3
   82a38:	100d883a 	mov	r6,r2
   82a3c:	008388c0 	call	8388c <__adddf3>
   82a40:	843fffc4 	addi	r16,r16,-1
   82a44:	8c7ffe04 	addi	r17,r17,-8
   82a48:	1011883a 	mov	r8,r2
   82a4c:	1813883a 	mov	r9,r3
   82a50:	84bff41e 	bne	r16,r18,82a24 <__kernel_rem_pio2+0xc04>
   82a54:	d9809217 	ldw	r6,584(sp)
   82a58:	30007a1e 	bne	r6,zero,82c44 <__kernel_rem_pio2+0xe24>
   82a5c:	d9c09717 	ldw	r7,604(sp)
   82a60:	d8803c17 	ldw	r2,240(sp)
   82a64:	d9003e17 	ldw	r4,248(sp)
   82a68:	3a400515 	stw	r9,20(r7)
   82a6c:	d8c03d17 	ldw	r3,244(sp)
   82a70:	d9403f17 	ldw	r5,252(sp)
   82a74:	3a000415 	stw	r8,16(r7)
   82a78:	38c00115 	stw	r3,4(r7)
   82a7c:	39400315 	stw	r5,12(r7)
   82a80:	38800015 	stw	r2,0(r7)
   82a84:	39000215 	stw	r4,8(r7)
   82a88:	003f2906 	br	82730 <__kernel_rem_pio2+0x910>
   82a8c:	183f281e 	bne	r3,zero,82730 <__kernel_rem_pio2+0x910>
   82a90:	d9408d17 	ldw	r5,564(sp)
   82a94:	28008016 	blt	r5,zero,82c98 <__kernel_rem_pio2+0xe78>
   82a98:	dc008d17 	ldw	r16,564(sp)
   82a9c:	000d883a 	mov	r6,zero
   82aa0:	000f883a 	mov	r7,zero
   82aa4:	800490fa 	slli	r2,r16,3
   82aa8:	04bfffc4 	movi	r18,-1
   82aac:	16e3883a 	add	r17,r2,sp
   82ab0:	88803c17 	ldw	r2,240(r17)
   82ab4:	88c03d17 	ldw	r3,244(r17)
   82ab8:	380b883a 	mov	r5,r7
   82abc:	3009883a 	mov	r4,r6
   82ac0:	180f883a 	mov	r7,r3
   82ac4:	100d883a 	mov	r6,r2
   82ac8:	008388c0 	call	8388c <__adddf3>
   82acc:	843fffc4 	addi	r16,r16,-1
   82ad0:	8c7ffe04 	addi	r17,r17,-8
   82ad4:	100d883a 	mov	r6,r2
   82ad8:	180f883a 	mov	r7,r3
   82adc:	84bff41e 	bne	r16,r18,82ab0 <__kernel_rem_pio2+0xc90>
   82ae0:	da809217 	ldw	r10,584(sp)
   82ae4:	50000226 	beq	r10,zero,82af0 <__kernel_rem_pio2+0xcd0>
   82ae8:	38e0003c 	xorhi	r3,r7,32768
   82aec:	180f883a 	mov	r7,r3
   82af0:	d8809717 	ldw	r2,604(sp)
   82af4:	11c00115 	stw	r7,4(r2)
   82af8:	11800015 	stw	r6,0(r2)
   82afc:	003f0c06 	br	82730 <__kernel_rem_pio2+0x910>
   82b00:	d8008c15 	stw	zero,560(sp)
   82b04:	003ce406 	br	81e98 <__kernel_rem_pio2+0x78>
   82b08:	d9c09317 	ldw	r7,588(sp)
   82b0c:	880b883a 	mov	r5,r17
   82b10:	8009883a 	mov	r4,r16
   82b14:	01cdc83a 	sub	r6,zero,r7
   82b18:	00831f80 	call	831f8 <scalbn>
   82b1c:	0011883a 	mov	r8,zero
   82b20:	02505c34 	movhi	r9,16752
   82b24:	480f883a 	mov	r7,r9
   82b28:	1009883a 	mov	r4,r2
   82b2c:	180b883a 	mov	r5,r3
   82b30:	400d883a 	mov	r6,r8
   82b34:	102d883a 	mov	r22,r2
   82b38:	182f883a 	mov	r23,r3
   82b3c:	008402c0 	call	8402c <__gedf2>
   82b40:	10003716 	blt	r2,zero,82c20 <__kernel_rem_pio2+0xe00>
   82b44:	0005883a 	mov	r2,zero
   82b48:	00cf9c34 	movhi	r3,15984
   82b4c:	180f883a 	mov	r7,r3
   82b50:	100d883a 	mov	r6,r2
   82b54:	b009883a 	mov	r4,r22
   82b58:	b80b883a 	mov	r5,r23
   82b5c:	00839000 	call	83900 <__muldf3>
   82b60:	180b883a 	mov	r5,r3
   82b64:	1009883a 	mov	r4,r2
   82b68:	00841ac0 	call	841ac <__fixdfsi>
   82b6c:	1009883a 	mov	r4,r2
   82b70:	00840b40 	call	840b4 <__floatsidf>
   82b74:	da808d17 	ldw	r10,564(sp)
   82b78:	1023883a 	mov	r17,r2
   82b7c:	1825883a 	mov	r18,r3
   82b80:	0005883a 	mov	r2,zero
   82b84:	00f05c34 	movhi	r3,49520
   82b88:	180f883a 	mov	r7,r3
   82b8c:	8809883a 	mov	r4,r17
   82b90:	900b883a 	mov	r5,r18
   82b94:	100d883a 	mov	r6,r2
   82b98:	52ab883a 	add	r21,r10,r10
   82b9c:	00839000 	call	83900 <__muldf3>
   82ba0:	180f883a 	mov	r7,r3
   82ba4:	b80b883a 	mov	r5,r23
   82ba8:	100d883a 	mov	r6,r2
   82bac:	b009883a 	mov	r4,r22
   82bb0:	008388c0 	call	8388c <__adddf3>
   82bb4:	100d883a 	mov	r6,r2
   82bb8:	d8808d17 	ldw	r2,564(sp)
   82bbc:	180b883a 	mov	r5,r3
   82bc0:	3009883a 	mov	r4,r6
   82bc4:	10800044 	addi	r2,r2,1
   82bc8:	ad6b883a 	add	r21,r21,r21
   82bcc:	d8808d15 	stw	r2,564(sp)
   82bd0:	00841ac0 	call	841ac <__fixdfsi>
   82bd4:	d8c08d17 	ldw	r3,564(sp)
   82bd8:	aeeb883a 	add	r21,r21,sp
   82bdc:	8809883a 	mov	r4,r17
   82be0:	900b883a 	mov	r5,r18
   82be4:	a8800015 	stw	r2,0(r21)
   82be8:	18e1883a 	add	r16,r3,r3
   82bec:	00841ac0 	call	841ac <__fixdfsi>
   82bf0:	d9009317 	ldw	r4,588(sp)
   82bf4:	8421883a 	add	r16,r16,r16
   82bf8:	86e1883a 	add	r16,r16,sp
   82bfc:	21000604 	addi	r4,r4,24
   82c00:	d9009315 	stw	r4,588(sp)
   82c04:	80800015 	stw	r2,0(r16)
   82c08:	003e3a06 	br	824f4 <__kernel_rem_pio2+0x6d4>
   82c0c:	4009883a 	mov	r4,r8
   82c10:	4960003c 	xorhi	r5,r9,32768
   82c14:	003ea406 	br	826a8 <__kernel_rem_pio2+0x888>
   82c18:	d9808d15 	stw	r6,564(sp)
   82c1c:	003e3506 	br	824f4 <__kernel_rem_pio2+0x6d4>
   82c20:	d9408d17 	ldw	r5,564(sp)
   82c24:	b009883a 	mov	r4,r22
   82c28:	2961883a 	add	r16,r5,r5
   82c2c:	8421883a 	add	r16,r16,r16
   82c30:	b80b883a 	mov	r5,r23
   82c34:	86e1883a 	add	r16,r16,sp
   82c38:	00841ac0 	call	841ac <__fixdfsi>
   82c3c:	80800015 	stw	r2,0(r16)
   82c40:	003e2c06 	br	824f4 <__kernel_rem_pio2+0x6d4>
   82c44:	d8c03d17 	ldw	r3,244(sp)
   82c48:	d9403f17 	ldw	r5,252(sp)
   82c4c:	da809717 	ldw	r10,604(sp)
   82c50:	d8803c17 	ldw	r2,240(sp)
   82c54:	d9003e17 	ldw	r4,248(sp)
   82c58:	49e0003c 	xorhi	r7,r9,32768
   82c5c:	51c00515 	stw	r7,20(r10)
   82c60:	19a0003c 	xorhi	r6,r3,32768
   82c64:	29e0003c 	xorhi	r7,r5,32768
   82c68:	51800115 	stw	r6,4(r10)
   82c6c:	51c00315 	stw	r7,12(r10)
   82c70:	50800015 	stw	r2,0(r10)
   82c74:	51000215 	stw	r4,8(r10)
   82c78:	52000415 	stw	r8,16(r10)
   82c7c:	003eac06 	br	82730 <__kernel_rem_pio2+0x910>
   82c80:	0011883a 	mov	r8,zero
   82c84:	0013883a 	mov	r9,zero
   82c88:	003e8306 	br	82698 <__kernel_rem_pio2+0x878>
   82c8c:	0011883a 	mov	r8,zero
   82c90:	0013883a 	mov	r9,zero
   82c94:	003f6f06 	br	82a54 <__kernel_rem_pio2+0xc34>
   82c98:	000d883a 	mov	r6,zero
   82c9c:	000f883a 	mov	r7,zero
   82ca0:	003f8f06 	br	82ae0 <__kernel_rem_pio2+0xcc0>

00082ca4 <__kernel_sin>:
   82ca4:	00a00034 	movhi	r2,32768
   82ca8:	10bfffc4 	addi	r2,r2,-1
   82cac:	deffef04 	addi	sp,sp,-68
   82cb0:	1144703a 	and	r2,r2,r5
   82cb4:	00cf9034 	movhi	r3,15936
   82cb8:	18ffffc4 	addi	r3,r3,-1
   82cbc:	dd400d15 	stw	r21,52(sp)
   82cc0:	dd000c15 	stw	r20,48(sp)
   82cc4:	dfc01015 	stw	ra,64(sp)
   82cc8:	ddc00f15 	stw	r23,60(sp)
   82ccc:	dd800e15 	stw	r22,56(sp)
   82cd0:	dcc00b15 	stw	r19,44(sp)
   82cd4:	dc800a15 	stw	r18,40(sp)
   82cd8:	dc400915 	stw	r17,36(sp)
   82cdc:	dc000815 	stw	r16,32(sp)
   82ce0:	2029883a 	mov	r20,r4
   82ce4:	282b883a 	mov	r21,r5
   82ce8:	d9800415 	stw	r6,16(sp)
   82cec:	d9c00515 	stw	r7,20(sp)
   82cf0:	18800216 	blt	r3,r2,82cfc <__kernel_sin+0x58>
   82cf4:	00841ac0 	call	841ac <__fixdfsi>
   82cf8:	10008826 	beq	r2,zero,82f1c <__kernel_sin+0x278>
   82cfc:	a009883a 	mov	r4,r20
   82d00:	a80b883a 	mov	r5,r21
   82d04:	a00d883a 	mov	r6,r20
   82d08:	a80f883a 	mov	r7,r21
   82d0c:	00839000 	call	83900 <__muldf3>
   82d10:	102d883a 	mov	r22,r2
   82d14:	a009883a 	mov	r4,r20
   82d18:	a80b883a 	mov	r5,r21
   82d1c:	b00d883a 	mov	r6,r22
   82d20:	180f883a 	mov	r7,r3
   82d24:	182f883a 	mov	r23,r3
   82d28:	d8800215 	stw	r2,8(sp)
   82d2c:	d8c00315 	stw	r3,12(sp)
   82d30:	00839000 	call	83900 <__muldf3>
   82d34:	d9000217 	ldw	r4,8(sp)
   82d38:	0216b434 	movhi	r8,23248
   82d3c:	42355f04 	addi	r8,r8,-10884
   82d40:	024f79b4 	movhi	r9,15846
   82d44:	4a764e84 	addi	r9,r9,-9926
   82d48:	480f883a 	mov	r7,r9
   82d4c:	400d883a 	mov	r6,r8
   82d50:	b80b883a 	mov	r5,r23
   82d54:	d8800615 	stw	r2,24(sp)
   82d58:	d8c00715 	stw	r3,28(sp)
   82d5c:	00839000 	call	83900 <__muldf3>
   82d60:	02228b34 	movhi	r8,35372
   82d64:	42273ac4 	addi	r8,r8,-25365
   82d68:	024f96f4 	movhi	r9,15963
   82d6c:	4a797984 	addi	r9,r9,-6682
   82d70:	480f883a 	mov	r7,r9
   82d74:	400d883a 	mov	r6,r8
   82d78:	180b883a 	mov	r5,r3
   82d7c:	1009883a 	mov	r4,r2
   82d80:	008380c0 	call	8380c <__subdf3>
   82d84:	d9000217 	ldw	r4,8(sp)
   82d88:	180f883a 	mov	r7,r3
   82d8c:	b80b883a 	mov	r5,r23
   82d90:	100d883a 	mov	r6,r2
   82d94:	00839000 	call	83900 <__muldf3>
   82d98:	0215ecb4 	movhi	r8,22450
   82d9c:	423f9f44 	addi	r8,r8,-387
   82da0:	024fb1f4 	movhi	r9,16071
   82da4:	4a4778c4 	addi	r9,r9,7651
   82da8:	480f883a 	mov	r7,r9
   82dac:	400d883a 	mov	r6,r8
   82db0:	180b883a 	mov	r5,r3
   82db4:	1009883a 	mov	r4,r2
   82db8:	008388c0 	call	8388c <__adddf3>
   82dbc:	d9000217 	ldw	r4,8(sp)
   82dc0:	180f883a 	mov	r7,r3
   82dc4:	b80b883a 	mov	r5,r23
   82dc8:	100d883a 	mov	r6,r2
   82dcc:	00839000 	call	83900 <__muldf3>
   82dd0:	02067074 	movhi	r8,6593
   82dd4:	42187544 	addi	r8,r8,25045
   82dd8:	024fcab4 	movhi	r9,16170
   82ddc:	4a406804 	addi	r9,r9,416
   82de0:	480f883a 	mov	r7,r9
   82de4:	400d883a 	mov	r6,r8
   82de8:	180b883a 	mov	r5,r3
   82dec:	1009883a 	mov	r4,r2
   82df0:	008380c0 	call	8380c <__subdf3>
   82df4:	d9000217 	ldw	r4,8(sp)
   82df8:	180f883a 	mov	r7,r3
   82dfc:	b80b883a 	mov	r5,r23
   82e00:	100d883a 	mov	r6,r2
   82e04:	00839000 	call	83900 <__muldf3>
   82e08:	02044474 	movhi	r8,4369
   82e0c:	423e2984 	addi	r8,r8,-1882
   82e10:	024fe074 	movhi	r9,16257
   82e14:	4a444444 	addi	r9,r9,4369
   82e18:	180b883a 	mov	r5,r3
   82e1c:	480f883a 	mov	r7,r9
   82e20:	1009883a 	mov	r4,r2
   82e24:	400d883a 	mov	r6,r8
   82e28:	008388c0 	call	8388c <__adddf3>
   82e2c:	1021883a 	mov	r16,r2
   82e30:	d8800617 	ldw	r2,24(sp)
   82e34:	1823883a 	mov	r17,r3
   82e38:	d8800015 	stw	r2,0(sp)
   82e3c:	d8800717 	ldw	r2,28(sp)
   82e40:	d8800115 	stw	r2,4(sp)
   82e44:	d8801117 	ldw	r2,68(sp)
   82e48:	10004126 	beq	r2,zero,82f50 <__kernel_sin+0x2ac>
   82e4c:	d9000417 	ldw	r4,16(sp)
   82e50:	d9400517 	ldw	r5,20(sp)
   82e54:	0005883a 	mov	r2,zero
   82e58:	00cff834 	movhi	r3,16352
   82e5c:	180f883a 	mov	r7,r3
   82e60:	100d883a 	mov	r6,r2
   82e64:	00839000 	call	83900 <__muldf3>
   82e68:	d9000017 	ldw	r4,0(sp)
   82e6c:	d9400717 	ldw	r5,28(sp)
   82e70:	800d883a 	mov	r6,r16
   82e74:	880f883a 	mov	r7,r17
   82e78:	1021883a 	mov	r16,r2
   82e7c:	1823883a 	mov	r17,r3
   82e80:	00839000 	call	83900 <__muldf3>
   82e84:	180f883a 	mov	r7,r3
   82e88:	880b883a 	mov	r5,r17
   82e8c:	8009883a 	mov	r4,r16
   82e90:	100d883a 	mov	r6,r2
   82e94:	008380c0 	call	8380c <__subdf3>
   82e98:	d9000217 	ldw	r4,8(sp)
   82e9c:	b80b883a 	mov	r5,r23
   82ea0:	180f883a 	mov	r7,r3
   82ea4:	100d883a 	mov	r6,r2
   82ea8:	00839000 	call	83900 <__muldf3>
   82eac:	d9c00517 	ldw	r7,20(sp)
   82eb0:	d9800417 	ldw	r6,16(sp)
   82eb4:	180b883a 	mov	r5,r3
   82eb8:	1009883a 	mov	r4,r2
   82ebc:	008380c0 	call	8380c <__subdf3>
   82ec0:	d9000017 	ldw	r4,0(sp)
   82ec4:	d9400717 	ldw	r5,28(sp)
   82ec8:	02155574 	movhi	r8,21845
   82ecc:	42155244 	addi	r8,r8,21833
   82ed0:	024ff174 	movhi	r9,16325
   82ed4:	4a555544 	addi	r9,r9,21845
   82ed8:	480f883a 	mov	r7,r9
   82edc:	400d883a 	mov	r6,r8
   82ee0:	1021883a 	mov	r16,r2
   82ee4:	1823883a 	mov	r17,r3
   82ee8:	00839000 	call	83900 <__muldf3>
   82eec:	180f883a 	mov	r7,r3
   82ef0:	880b883a 	mov	r5,r17
   82ef4:	8009883a 	mov	r4,r16
   82ef8:	100d883a 	mov	r6,r2
   82efc:	008388c0 	call	8388c <__adddf3>
   82f00:	180f883a 	mov	r7,r3
   82f04:	a80b883a 	mov	r5,r21
   82f08:	a009883a 	mov	r4,r20
   82f0c:	100d883a 	mov	r6,r2
   82f10:	008380c0 	call	8380c <__subdf3>
   82f14:	1029883a 	mov	r20,r2
   82f18:	182b883a 	mov	r21,r3
   82f1c:	a005883a 	mov	r2,r20
   82f20:	a807883a 	mov	r3,r21
   82f24:	dfc01017 	ldw	ra,64(sp)
   82f28:	ddc00f17 	ldw	r23,60(sp)
   82f2c:	dd800e17 	ldw	r22,56(sp)
   82f30:	dd400d17 	ldw	r21,52(sp)
   82f34:	dd000c17 	ldw	r20,48(sp)
   82f38:	dcc00b17 	ldw	r19,44(sp)
   82f3c:	dc800a17 	ldw	r18,40(sp)
   82f40:	dc400917 	ldw	r17,36(sp)
   82f44:	dc000817 	ldw	r16,32(sp)
   82f48:	dec01104 	addi	sp,sp,68
   82f4c:	f800283a 	ret
   82f50:	d9000217 	ldw	r4,8(sp)
   82f54:	b80b883a 	mov	r5,r23
   82f58:	800d883a 	mov	r6,r16
   82f5c:	180f883a 	mov	r7,r3
   82f60:	00839000 	call	83900 <__muldf3>
   82f64:	02155574 	movhi	r8,21845
   82f68:	42155244 	addi	r8,r8,21833
   82f6c:	024ff174 	movhi	r9,16325
   82f70:	4a555544 	addi	r9,r9,21845
   82f74:	480f883a 	mov	r7,r9
   82f78:	400d883a 	mov	r6,r8
   82f7c:	180b883a 	mov	r5,r3
   82f80:	1009883a 	mov	r4,r2
   82f84:	008380c0 	call	8380c <__subdf3>
   82f88:	d9000017 	ldw	r4,0(sp)
   82f8c:	d9400717 	ldw	r5,28(sp)
   82f90:	180f883a 	mov	r7,r3
   82f94:	100d883a 	mov	r6,r2
   82f98:	00839000 	call	83900 <__muldf3>
   82f9c:	180f883a 	mov	r7,r3
   82fa0:	a80b883a 	mov	r5,r21
   82fa4:	a009883a 	mov	r4,r20
   82fa8:	100d883a 	mov	r6,r2
   82fac:	008388c0 	call	8388c <__adddf3>
   82fb0:	1029883a 	mov	r20,r2
   82fb4:	182b883a 	mov	r21,r3
   82fb8:	003fd806 	br	82f1c <__kernel_sin+0x278>

00082fbc <fabs>:
   82fbc:	01e00034 	movhi	r7,32768
   82fc0:	39ffffc4 	addi	r7,r7,-1
   82fc4:	394e703a 	and	r7,r7,r5
   82fc8:	2005883a 	mov	r2,r4
   82fcc:	3807883a 	mov	r3,r7
   82fd0:	f800283a 	ret

00082fd4 <floor>:
   82fd4:	2805d53a 	srai	r2,r5,20
   82fd8:	defff604 	addi	sp,sp,-40
   82fdc:	dd800615 	stw	r22,24(sp)
   82fe0:	10c1ffcc 	andi	r3,r2,2047
   82fe4:	1dbf0044 	addi	r22,r3,-1023
   82fe8:	008004c4 	movi	r2,19
   82fec:	ddc00715 	stw	r23,28(sp)
   82ff0:	dc800215 	stw	r18,8(sp)
   82ff4:	dc400115 	stw	r17,4(sp)
   82ff8:	dc000015 	stw	r16,0(sp)
   82ffc:	dfc00915 	stw	ra,36(sp)
   83000:	df000815 	stw	fp,32(sp)
   83004:	dd400515 	stw	r21,20(sp)
   83008:	dd000415 	stw	r20,16(sp)
   8300c:	dcc00315 	stw	r19,12(sp)
   83010:	2021883a 	mov	r16,r4
   83014:	2823883a 	mov	r17,r5
   83018:	282f883a 	mov	r23,r5
   8301c:	2025883a 	mov	r18,r4
   83020:	15802916 	blt	r2,r22,830c8 <floor+0xf4>
   83024:	b0004816 	blt	r22,zero,83148 <floor+0x174>
   83028:	00800434 	movhi	r2,16
   8302c:	10bfffc4 	addi	r2,r2,-1
   83030:	15b9d83a 	sra	fp,r2,r22
   83034:	282f883a 	mov	r23,r5
   83038:	e144703a 	and	r2,fp,r5
   8303c:	1104b03a 	or	r2,r2,r4
   83040:	10001326 	beq	r2,zero,83090 <floor+0xbc>
   83044:	00a20034 	movhi	r2,34816
   83048:	109d6704 	addi	r2,r2,30108
   8304c:	00df8e34 	movhi	r3,32312
   83050:	18f90f04 	addi	r3,r3,-7108
   83054:	180f883a 	mov	r7,r3
   83058:	100d883a 	mov	r6,r2
   8305c:	008388c0 	call	8388c <__adddf3>
   83060:	180b883a 	mov	r5,r3
   83064:	000d883a 	mov	r6,zero
   83068:	000f883a 	mov	r7,zero
   8306c:	1009883a 	mov	r4,r2
   83070:	0083fa40 	call	83fa4 <__gtdf2>
   83074:	0080040e 	bge	zero,r2,83088 <floor+0xb4>
   83078:	88004416 	blt	r17,zero,8318c <floor+0x1b8>
   8307c:	0704303a 	nor	r2,zero,fp
   83080:	b8ae703a 	and	r23,r23,r2
   83084:	0025883a 	mov	r18,zero
   83088:	9021883a 	mov	r16,r18
   8308c:	b823883a 	mov	r17,r23
   83090:	8005883a 	mov	r2,r16
   83094:	8807883a 	mov	r3,r17
   83098:	dfc00917 	ldw	ra,36(sp)
   8309c:	df000817 	ldw	fp,32(sp)
   830a0:	ddc00717 	ldw	r23,28(sp)
   830a4:	dd800617 	ldw	r22,24(sp)
   830a8:	dd400517 	ldw	r21,20(sp)
   830ac:	dd000417 	ldw	r20,16(sp)
   830b0:	dcc00317 	ldw	r19,12(sp)
   830b4:	dc800217 	ldw	r18,8(sp)
   830b8:	dc400117 	ldw	r17,4(sp)
   830bc:	dc000017 	ldw	r16,0(sp)
   830c0:	dec00a04 	addi	sp,sp,40
   830c4:	f800283a 	ret
   830c8:	00800cc4 	movi	r2,51
   830cc:	15801616 	blt	r2,r22,83128 <floor+0x154>
   830d0:	18befb44 	addi	r2,r3,-1043
   830d4:	00ffffc4 	movi	r3,-1
   830d8:	18b8d83a 	srl	fp,r3,r2
   830dc:	e104703a 	and	r2,fp,r4
   830e0:	103feb26 	beq	r2,zero,83090 <floor+0xbc>
   830e4:	00a20034 	movhi	r2,34816
   830e8:	109d6704 	addi	r2,r2,30108
   830ec:	00df8e34 	movhi	r3,32312
   830f0:	18f90f04 	addi	r3,r3,-7108
   830f4:	180f883a 	mov	r7,r3
   830f8:	100d883a 	mov	r6,r2
   830fc:	008388c0 	call	8388c <__adddf3>
   83100:	180b883a 	mov	r5,r3
   83104:	000d883a 	mov	r6,zero
   83108:	000f883a 	mov	r7,zero
   8310c:	1009883a 	mov	r4,r2
   83110:	0083fa40 	call	83fa4 <__gtdf2>
   83114:	0080210e 	bge	zero,r2,8319c <floor+0x1c8>
   83118:	88002216 	blt	r17,zero,831a4 <floor+0x1d0>
   8311c:	0704303a 	nor	r2,zero,fp
   83120:	90a4703a 	and	r18,r18,r2
   83124:	003fd806 	br	83088 <floor+0xb4>
   83128:	00810004 	movi	r2,1024
   8312c:	b0bfd81e 	bne	r22,r2,83090 <floor+0xbc>
   83130:	800d883a 	mov	r6,r16
   83134:	280f883a 	mov	r7,r5
   83138:	008388c0 	call	8388c <__adddf3>
   8313c:	1021883a 	mov	r16,r2
   83140:	1823883a 	mov	r17,r3
   83144:	003fd206 	br	83090 <floor+0xbc>
   83148:	00a20034 	movhi	r2,34816
   8314c:	109d6704 	addi	r2,r2,30108
   83150:	00df8e34 	movhi	r3,32312
   83154:	18f90f04 	addi	r3,r3,-7108
   83158:	180f883a 	mov	r7,r3
   8315c:	100d883a 	mov	r6,r2
   83160:	008388c0 	call	8388c <__adddf3>
   83164:	180b883a 	mov	r5,r3
   83168:	000d883a 	mov	r6,zero
   8316c:	000f883a 	mov	r7,zero
   83170:	1009883a 	mov	r4,r2
   83174:	0083fa40 	call	83fa4 <__gtdf2>
   83178:	00bfc30e 	bge	zero,r2,83088 <floor+0xb4>
   8317c:	88001416 	blt	r17,zero,831d0 <floor+0x1fc>
   83180:	002f883a 	mov	r23,zero
   83184:	0025883a 	mov	r18,zero
   83188:	003fbf06 	br	83088 <floor+0xb4>
   8318c:	00800434 	movhi	r2,16
   83190:	1585d83a 	sra	r2,r2,r22
   83194:	88af883a 	add	r23,r17,r2
   83198:	003fb806 	br	8307c <floor+0xa8>
   8319c:	882f883a 	mov	r23,r17
   831a0:	003fb906 	br	83088 <floor+0xb4>
   831a4:	00800504 	movi	r2,20
   831a8:	b0801126 	beq	r22,r2,831f0 <floor+0x21c>
   831ac:	00c00d04 	movi	r3,52
   831b0:	1d87c83a 	sub	r3,r3,r22
   831b4:	00800044 	movi	r2,1
   831b8:	10c4983a 	sll	r2,r2,r3
   831bc:	8085883a 	add	r2,r16,r2
   831c0:	1400012e 	bgeu	r2,r16,831c8 <floor+0x1f4>
   831c4:	8dc00044 	addi	r23,r17,1
   831c8:	1025883a 	mov	r18,r2
   831cc:	003fd306 	br	8311c <floor+0x148>
   831d0:	00a00034 	movhi	r2,32768
   831d4:	10bfffc4 	addi	r2,r2,-1
   831d8:	8884703a 	and	r2,r17,r2
   831dc:	8084b03a 	or	r2,r16,r2
   831e0:	103fee26 	beq	r2,zero,8319c <floor+0x1c8>
   831e4:	05effc34 	movhi	r23,49136
   831e8:	0025883a 	mov	r18,zero
   831ec:	003fa606 	br	83088 <floor+0xb4>
   831f0:	8dc00044 	addi	r23,r17,1
   831f4:	003fc906 	br	8311c <floor+0x148>

000831f8 <scalbn>:
   831f8:	2011883a 	mov	r8,r4
   831fc:	291ffc2c 	andhi	r4,r5,32752
   83200:	2009d53a 	srai	r4,r4,20
   83204:	defffd04 	addi	sp,sp,-12
   83208:	dc000015 	stw	r16,0(sp)
   8320c:	dfc00215 	stw	ra,8(sp)
   83210:	dc400115 	stw	r17,4(sp)
   83214:	2813883a 	mov	r9,r5
   83218:	2815883a 	mov	r10,r5
   8321c:	3021883a 	mov	r16,r6
   83220:	2000281e 	bne	r4,zero,832c4 <scalbn+0xcc>
   83224:	00a00034 	movhi	r2,32768
   83228:	10bfffc4 	addi	r2,r2,-1
   8322c:	2884703a 	and	r2,r5,r2
   83230:	4084b03a 	or	r2,r8,r2
   83234:	10001826 	beq	r2,zero,83298 <scalbn+0xa0>
   83238:	0005883a 	mov	r2,zero
   8323c:	00d0d434 	movhi	r3,17232
   83240:	4009883a 	mov	r4,r8
   83244:	100d883a 	mov	r6,r2
   83248:	180f883a 	mov	r7,r3
   8324c:	00839000 	call	83900 <__muldf3>
   83250:	100b883a 	mov	r5,r2
   83254:	1011883a 	mov	r8,r2
   83258:	00bffff4 	movhi	r2,65535
   8325c:	108f2c04 	addi	r2,r2,15536
   83260:	180d883a 	mov	r6,r3
   83264:	1813883a 	mov	r9,r3
   83268:	8080120e 	bge	r16,r2,832b4 <scalbn+0xbc>
   8326c:	00b0be74 	movhi	r2,49913
   83270:	10bcd644 	addi	r2,r2,-3239
   83274:	00c06974 	movhi	r3,421
   83278:	18db87c4 	addi	r3,r3,28191
   8327c:	2809883a 	mov	r4,r5
   83280:	180f883a 	mov	r7,r3
   83284:	300b883a 	mov	r5,r6
   83288:	100d883a 	mov	r6,r2
   8328c:	00839000 	call	83900 <__muldf3>
   83290:	1011883a 	mov	r8,r2
   83294:	1813883a 	mov	r9,r3
   83298:	4005883a 	mov	r2,r8
   8329c:	4807883a 	mov	r3,r9
   832a0:	dfc00217 	ldw	ra,8(sp)
   832a4:	dc400117 	ldw	r17,4(sp)
   832a8:	dc000017 	ldw	r16,0(sp)
   832ac:	dec00304 	addi	sp,sp,12
   832b0:	f800283a 	ret
   832b4:	189ffc2c 	andhi	r2,r3,32752
   832b8:	1005d53a 	srai	r2,r2,20
   832bc:	1815883a 	mov	r10,r3
   832c0:	113ff284 	addi	r4,r2,-54
   832c4:	0081ffc4 	movi	r2,2047
   832c8:	20801126 	beq	r4,r2,83310 <scalbn+0x118>
   832cc:	2409883a 	add	r4,r4,r16
   832d0:	0081ff84 	movi	r2,2046
   832d4:	11001c16 	blt	r2,r4,83348 <scalbn+0x150>
   832d8:	0100290e 	bge	zero,r4,83380 <scalbn+0x188>
   832dc:	200a953a 	slli	r5,r4,20
   832e0:	01200434 	movhi	r4,32784
   832e4:	213fffc4 	addi	r4,r4,-1
   832e8:	5108703a 	and	r4,r10,r4
   832ec:	2148b03a 	or	r4,r4,r5
   832f0:	2013883a 	mov	r9,r4
   832f4:	4005883a 	mov	r2,r8
   832f8:	4807883a 	mov	r3,r9
   832fc:	dfc00217 	ldw	ra,8(sp)
   83300:	dc400117 	ldw	r17,4(sp)
   83304:	dc000017 	ldw	r16,0(sp)
   83308:	dec00304 	addi	sp,sp,12
   8330c:	f800283a 	ret
   83310:	480f883a 	mov	r7,r9
   83314:	4009883a 	mov	r4,r8
   83318:	480b883a 	mov	r5,r9
   8331c:	400d883a 	mov	r6,r8
   83320:	008388c0 	call	8388c <__adddf3>
   83324:	1011883a 	mov	r8,r2
   83328:	1813883a 	mov	r9,r3
   8332c:	4005883a 	mov	r2,r8
   83330:	4807883a 	mov	r3,r9
   83334:	dfc00217 	ldw	ra,8(sp)
   83338:	dc400117 	ldw	r17,4(sp)
   8333c:	dc000017 	ldw	r16,0(sp)
   83340:	dec00304 	addi	sp,sp,12
   83344:	f800283a 	ret
   83348:	04220034 	movhi	r16,34816
   8334c:	841d6704 	addi	r16,r16,30108
   83350:	045f8e34 	movhi	r17,32312
   83354:	8c790f04 	addi	r17,r17,-7108
   83358:	480f883a 	mov	r7,r9
   8335c:	400d883a 	mov	r6,r8
   83360:	8009883a 	mov	r4,r16
   83364:	880b883a 	mov	r5,r17
   83368:	00833d80 	call	833d8 <copysign>
   8336c:	180b883a 	mov	r5,r3
   83370:	800d883a 	mov	r6,r16
   83374:	880f883a 	mov	r7,r17
   83378:	1009883a 	mov	r4,r2
   8337c:	003fc306 	br	8328c <scalbn+0x94>
   83380:	00bff284 	movi	r2,-54
   83384:	11000716 	blt	r2,r4,833a4 <scalbn+0x1ac>
   83388:	00b0d414 	movui	r2,50000
   8338c:	143fee16 	blt	r2,r16,83348 <scalbn+0x150>
   83390:	0430be74 	movhi	r16,49913
   83394:	843cd644 	addi	r16,r16,-3239
   83398:	04406974 	movhi	r17,421
   8339c:	8c5b87c4 	addi	r17,r17,28191
   833a0:	003fed06 	br	83358 <scalbn+0x160>
   833a4:	21000d84 	addi	r4,r4,54
   833a8:	2008953a 	slli	r4,r4,20
   833ac:	01e00434 	movhi	r7,32784
   833b0:	39ffffc4 	addi	r7,r7,-1
   833b4:	51ce703a 	and	r7,r10,r7
   833b8:	390eb03a 	or	r7,r7,r4
   833bc:	024f2434 	movhi	r9,15504
   833c0:	4009883a 	mov	r4,r8
   833c4:	0011883a 	mov	r8,zero
   833c8:	380b883a 	mov	r5,r7
   833cc:	400d883a 	mov	r6,r8
   833d0:	480f883a 	mov	r7,r9
   833d4:	003fad06 	br	8328c <scalbn+0x94>

000833d8 <copysign>:
   833d8:	3813883a 	mov	r9,r7
   833dc:	01e00034 	movhi	r7,32768
   833e0:	39ffffc4 	addi	r7,r7,-1
   833e4:	394e703a 	and	r7,r7,r5
   833e8:	4aa0002c 	andhi	r10,r9,32768
   833ec:	3a8eb03a 	or	r7,r7,r10
   833f0:	2005883a 	mov	r2,r4
   833f4:	3807883a 	mov	r3,r7
   833f8:	f800283a 	ret

000833fc <_fpadd_parts>:
   833fc:	defff804 	addi	sp,sp,-32
   83400:	dcc00315 	stw	r19,12(sp)
   83404:	2027883a 	mov	r19,r4
   83408:	21000017 	ldw	r4,0(r4)
   8340c:	00c00044 	movi	r3,1
   83410:	dd400515 	stw	r21,20(sp)
   83414:	dd000415 	stw	r20,16(sp)
   83418:	ddc00715 	stw	r23,28(sp)
   8341c:	dd800615 	stw	r22,24(sp)
   83420:	dc800215 	stw	r18,8(sp)
   83424:	dc400115 	stw	r17,4(sp)
   83428:	dc000015 	stw	r16,0(sp)
   8342c:	282b883a 	mov	r21,r5
   83430:	3029883a 	mov	r20,r6
   83434:	1900632e 	bgeu	r3,r4,835c4 <_fpadd_parts+0x1c8>
   83438:	28800017 	ldw	r2,0(r5)
   8343c:	1880812e 	bgeu	r3,r2,83644 <_fpadd_parts+0x248>
   83440:	00c00104 	movi	r3,4
   83444:	20c0dc26 	beq	r4,r3,837b8 <_fpadd_parts+0x3bc>
   83448:	10c07e26 	beq	r2,r3,83644 <_fpadd_parts+0x248>
   8344c:	00c00084 	movi	r3,2
   83450:	10c06726 	beq	r2,r3,835f0 <_fpadd_parts+0x1f4>
   83454:	20c07b26 	beq	r4,r3,83644 <_fpadd_parts+0x248>
   83458:	9dc00217 	ldw	r23,8(r19)
   8345c:	28c00217 	ldw	r3,8(r5)
   83460:	9c400317 	ldw	r17,12(r19)
   83464:	2bc00317 	ldw	r15,12(r5)
   83468:	b8cdc83a 	sub	r6,r23,r3
   8346c:	9c800417 	ldw	r18,16(r19)
   83470:	2c000417 	ldw	r16,16(r5)
   83474:	3009883a 	mov	r4,r6
   83478:	30009716 	blt	r6,zero,836d8 <_fpadd_parts+0x2dc>
   8347c:	00800fc4 	movi	r2,63
   83480:	11806b16 	blt	r2,r6,83630 <_fpadd_parts+0x234>
   83484:	0100a40e 	bge	zero,r4,83718 <_fpadd_parts+0x31c>
   83488:	35bff804 	addi	r22,r6,-32
   8348c:	b000bc16 	blt	r22,zero,83780 <_fpadd_parts+0x384>
   83490:	8596d83a 	srl	r11,r16,r22
   83494:	0019883a 	mov	r12,zero
   83498:	0013883a 	mov	r9,zero
   8349c:	01000044 	movi	r4,1
   834a0:	0015883a 	mov	r10,zero
   834a4:	b000be16 	blt	r22,zero,837a0 <_fpadd_parts+0x3a4>
   834a8:	2590983a 	sll	r8,r4,r22
   834ac:	000f883a 	mov	r7,zero
   834b0:	00bfffc4 	movi	r2,-1
   834b4:	3889883a 	add	r4,r7,r2
   834b8:	408b883a 	add	r5,r8,r2
   834bc:	21cd803a 	cmpltu	r6,r4,r7
   834c0:	314b883a 	add	r5,r6,r5
   834c4:	7904703a 	and	r2,r15,r4
   834c8:	8146703a 	and	r3,r16,r5
   834cc:	10c4b03a 	or	r2,r2,r3
   834d0:	10000226 	beq	r2,zero,834dc <_fpadd_parts+0xe0>
   834d4:	02400044 	movi	r9,1
   834d8:	0015883a 	mov	r10,zero
   834dc:	5a5eb03a 	or	r15,r11,r9
   834e0:	62a0b03a 	or	r16,r12,r10
   834e4:	99400117 	ldw	r5,4(r19)
   834e8:	a8800117 	ldw	r2,4(r21)
   834ec:	28806e26 	beq	r5,r2,836a8 <_fpadd_parts+0x2ac>
   834f0:	28006626 	beq	r5,zero,8368c <_fpadd_parts+0x290>
   834f4:	7c45c83a 	sub	r2,r15,r17
   834f8:	7889803a 	cmpltu	r4,r15,r2
   834fc:	8487c83a 	sub	r3,r16,r18
   83500:	1909c83a 	sub	r4,r3,r4
   83504:	100d883a 	mov	r6,r2
   83508:	200f883a 	mov	r7,r4
   8350c:	38007716 	blt	r7,zero,836ec <_fpadd_parts+0x2f0>
   83510:	a5c00215 	stw	r23,8(r20)
   83514:	a1c00415 	stw	r7,16(r20)
   83518:	a0000115 	stw	zero,4(r20)
   8351c:	a1800315 	stw	r6,12(r20)
   83520:	a2000317 	ldw	r8,12(r20)
   83524:	a2400417 	ldw	r9,16(r20)
   83528:	00bfffc4 	movi	r2,-1
   8352c:	408b883a 	add	r5,r8,r2
   83530:	2a09803a 	cmpltu	r4,r5,r8
   83534:	488d883a 	add	r6,r9,r2
   83538:	01c40034 	movhi	r7,4096
   8353c:	39ffffc4 	addi	r7,r7,-1
   83540:	218d883a 	add	r6,r4,r6
   83544:	39801736 	bltu	r7,r6,835a4 <_fpadd_parts+0x1a8>
   83548:	31c06526 	beq	r6,r7,836e0 <_fpadd_parts+0x2e4>
   8354c:	a3000217 	ldw	r12,8(r20)
   83550:	4209883a 	add	r4,r8,r8
   83554:	00bfffc4 	movi	r2,-1
   83558:	220f803a 	cmpltu	r7,r4,r8
   8355c:	4a4b883a 	add	r5,r9,r9
   83560:	394f883a 	add	r7,r7,r5
   83564:	2095883a 	add	r10,r4,r2
   83568:	3897883a 	add	r11,r7,r2
   8356c:	510d803a 	cmpltu	r6,r10,r4
   83570:	6099883a 	add	r12,r12,r2
   83574:	32d7883a 	add	r11,r6,r11
   83578:	00840034 	movhi	r2,4096
   8357c:	10bfffc4 	addi	r2,r2,-1
   83580:	2011883a 	mov	r8,r4
   83584:	3813883a 	mov	r9,r7
   83588:	a1000315 	stw	r4,12(r20)
   8358c:	a1c00415 	stw	r7,16(r20)
   83590:	a3000215 	stw	r12,8(r20)
   83594:	12c00336 	bltu	r2,r11,835a4 <_fpadd_parts+0x1a8>
   83598:	58bfed1e 	bne	r11,r2,83550 <_fpadd_parts+0x154>
   8359c:	00bfff84 	movi	r2,-2
   835a0:	12bfeb2e 	bgeu	r2,r10,83550 <_fpadd_parts+0x154>
   835a4:	a2800417 	ldw	r10,16(r20)
   835a8:	008000c4 	movi	r2,3
   835ac:	00c80034 	movhi	r3,8192
   835b0:	18ffffc4 	addi	r3,r3,-1
   835b4:	a2400317 	ldw	r9,12(r20)
   835b8:	a0800015 	stw	r2,0(r20)
   835bc:	1a802336 	bltu	r3,r10,8364c <_fpadd_parts+0x250>
   835c0:	a027883a 	mov	r19,r20
   835c4:	9805883a 	mov	r2,r19
   835c8:	ddc00717 	ldw	r23,28(sp)
   835cc:	dd800617 	ldw	r22,24(sp)
   835d0:	dd400517 	ldw	r21,20(sp)
   835d4:	dd000417 	ldw	r20,16(sp)
   835d8:	dcc00317 	ldw	r19,12(sp)
   835dc:	dc800217 	ldw	r18,8(sp)
   835e0:	dc400117 	ldw	r17,4(sp)
   835e4:	dc000017 	ldw	r16,0(sp)
   835e8:	dec00804 	addi	sp,sp,32
   835ec:	f800283a 	ret
   835f0:	20fff41e 	bne	r4,r3,835c4 <_fpadd_parts+0x1c8>
   835f4:	31000015 	stw	r4,0(r6)
   835f8:	98800117 	ldw	r2,4(r19)
   835fc:	30800115 	stw	r2,4(r6)
   83600:	98c00217 	ldw	r3,8(r19)
   83604:	30c00215 	stw	r3,8(r6)
   83608:	98800317 	ldw	r2,12(r19)
   8360c:	30800315 	stw	r2,12(r6)
   83610:	98c00417 	ldw	r3,16(r19)
   83614:	30c00415 	stw	r3,16(r6)
   83618:	98800117 	ldw	r2,4(r19)
   8361c:	28c00117 	ldw	r3,4(r5)
   83620:	3027883a 	mov	r19,r6
   83624:	10c4703a 	and	r2,r2,r3
   83628:	30800115 	stw	r2,4(r6)
   8362c:	003fe506 	br	835c4 <_fpadd_parts+0x1c8>
   83630:	1dc02616 	blt	r3,r23,836cc <_fpadd_parts+0x2d0>
   83634:	0023883a 	mov	r17,zero
   83638:	182f883a 	mov	r23,r3
   8363c:	0025883a 	mov	r18,zero
   83640:	003fa806 	br	834e4 <_fpadd_parts+0xe8>
   83644:	a827883a 	mov	r19,r21
   83648:	003fde06 	br	835c4 <_fpadd_parts+0x1c8>
   8364c:	01800044 	movi	r6,1
   83650:	500497fa 	slli	r2,r10,31
   83654:	4808d07a 	srli	r4,r9,1
   83658:	518ad83a 	srl	r5,r10,r6
   8365c:	a2000217 	ldw	r8,8(r20)
   83660:	1108b03a 	or	r4,r2,r4
   83664:	0007883a 	mov	r3,zero
   83668:	4984703a 	and	r2,r9,r6
   8366c:	208cb03a 	or	r6,r4,r2
   83670:	28ceb03a 	or	r7,r5,r3
   83674:	42000044 	addi	r8,r8,1
   83678:	a027883a 	mov	r19,r20
   8367c:	a1c00415 	stw	r7,16(r20)
   83680:	a2000215 	stw	r8,8(r20)
   83684:	a1800315 	stw	r6,12(r20)
   83688:	003fce06 	br	835c4 <_fpadd_parts+0x1c8>
   8368c:	8bc5c83a 	sub	r2,r17,r15
   83690:	8889803a 	cmpltu	r4,r17,r2
   83694:	9407c83a 	sub	r3,r18,r16
   83698:	1909c83a 	sub	r4,r3,r4
   8369c:	100d883a 	mov	r6,r2
   836a0:	200f883a 	mov	r7,r4
   836a4:	003f9906 	br	8350c <_fpadd_parts+0x110>
   836a8:	7c45883a 	add	r2,r15,r17
   836ac:	13c9803a 	cmpltu	r4,r2,r15
   836b0:	8487883a 	add	r3,r16,r18
   836b4:	20c9883a 	add	r4,r4,r3
   836b8:	a1400115 	stw	r5,4(r20)
   836bc:	a5c00215 	stw	r23,8(r20)
   836c0:	a0800315 	stw	r2,12(r20)
   836c4:	a1000415 	stw	r4,16(r20)
   836c8:	003fb606 	br	835a4 <_fpadd_parts+0x1a8>
   836cc:	001f883a 	mov	r15,zero
   836d0:	0021883a 	mov	r16,zero
   836d4:	003f8306 	br	834e4 <_fpadd_parts+0xe8>
   836d8:	018dc83a 	sub	r6,zero,r6
   836dc:	003f6706 	br	8347c <_fpadd_parts+0x80>
   836e0:	00bfff84 	movi	r2,-2
   836e4:	117faf36 	bltu	r2,r5,835a4 <_fpadd_parts+0x1a8>
   836e8:	003f9806 	br	8354c <_fpadd_parts+0x150>
   836ec:	0005883a 	mov	r2,zero
   836f0:	1189c83a 	sub	r4,r2,r6
   836f4:	1105803a 	cmpltu	r2,r2,r4
   836f8:	01cbc83a 	sub	r5,zero,r7
   836fc:	2885c83a 	sub	r2,r5,r2
   83700:	01800044 	movi	r6,1
   83704:	a1800115 	stw	r6,4(r20)
   83708:	a5c00215 	stw	r23,8(r20)
   8370c:	a1000315 	stw	r4,12(r20)
   83710:	a0800415 	stw	r2,16(r20)
   83714:	003f8206 	br	83520 <_fpadd_parts+0x124>
   83718:	203f7226 	beq	r4,zero,834e4 <_fpadd_parts+0xe8>
   8371c:	35bff804 	addi	r22,r6,-32
   83720:	b9af883a 	add	r23,r23,r6
   83724:	b0003116 	blt	r22,zero,837ec <_fpadd_parts+0x3f0>
   83728:	959ad83a 	srl	r13,r18,r22
   8372c:	001d883a 	mov	r14,zero
   83730:	000f883a 	mov	r7,zero
   83734:	01000044 	movi	r4,1
   83738:	0011883a 	mov	r8,zero
   8373c:	b0002516 	blt	r22,zero,837d4 <_fpadd_parts+0x3d8>
   83740:	2594983a 	sll	r10,r4,r22
   83744:	0013883a 	mov	r9,zero
   83748:	00bfffc4 	movi	r2,-1
   8374c:	4889883a 	add	r4,r9,r2
   83750:	508b883a 	add	r5,r10,r2
   83754:	224d803a 	cmpltu	r6,r4,r9
   83758:	314b883a 	add	r5,r6,r5
   8375c:	8904703a 	and	r2,r17,r4
   83760:	9146703a 	and	r3,r18,r5
   83764:	10c4b03a 	or	r2,r2,r3
   83768:	10000226 	beq	r2,zero,83774 <_fpadd_parts+0x378>
   8376c:	01c00044 	movi	r7,1
   83770:	0011883a 	mov	r8,zero
   83774:	69e2b03a 	or	r17,r13,r7
   83778:	7224b03a 	or	r18,r14,r8
   8377c:	003f5906 	br	834e4 <_fpadd_parts+0xe8>
   83780:	8407883a 	add	r3,r16,r16
   83784:	008007c4 	movi	r2,31
   83788:	1185c83a 	sub	r2,r2,r6
   8378c:	1886983a 	sll	r3,r3,r2
   83790:	7996d83a 	srl	r11,r15,r6
   83794:	8198d83a 	srl	r12,r16,r6
   83798:	1ad6b03a 	or	r11,r3,r11
   8379c:	003f3e06 	br	83498 <_fpadd_parts+0x9c>
   837a0:	2006d07a 	srli	r3,r4,1
   837a4:	008007c4 	movi	r2,31
   837a8:	1185c83a 	sub	r2,r2,r6
   837ac:	1890d83a 	srl	r8,r3,r2
   837b0:	218e983a 	sll	r7,r4,r6
   837b4:	003f3e06 	br	834b0 <_fpadd_parts+0xb4>
   837b8:	113f821e 	bne	r2,r4,835c4 <_fpadd_parts+0x1c8>
   837bc:	28c00117 	ldw	r3,4(r5)
   837c0:	98800117 	ldw	r2,4(r19)
   837c4:	10ff7f26 	beq	r2,r3,835c4 <_fpadd_parts+0x1c8>
   837c8:	04c00274 	movhi	r19,9
   837cc:	9ccac304 	addi	r19,r19,11020
   837d0:	003f7c06 	br	835c4 <_fpadd_parts+0x1c8>
   837d4:	2006d07a 	srli	r3,r4,1
   837d8:	008007c4 	movi	r2,31
   837dc:	1185c83a 	sub	r2,r2,r6
   837e0:	1894d83a 	srl	r10,r3,r2
   837e4:	2192983a 	sll	r9,r4,r6
   837e8:	003fd706 	br	83748 <_fpadd_parts+0x34c>
   837ec:	9487883a 	add	r3,r18,r18
   837f0:	008007c4 	movi	r2,31
   837f4:	1185c83a 	sub	r2,r2,r6
   837f8:	1886983a 	sll	r3,r3,r2
   837fc:	899ad83a 	srl	r13,r17,r6
   83800:	919cd83a 	srl	r14,r18,r6
   83804:	1b5ab03a 	or	r13,r3,r13
   83808:	003fc906 	br	83730 <_fpadd_parts+0x334>

0008380c <__subdf3>:
   8380c:	deffea04 	addi	sp,sp,-88
   83810:	dcc01415 	stw	r19,80(sp)
   83814:	dcc00404 	addi	r19,sp,16
   83818:	2011883a 	mov	r8,r4
   8381c:	2813883a 	mov	r9,r5
   83820:	dc401315 	stw	r17,76(sp)
   83824:	d809883a 	mov	r4,sp
   83828:	980b883a 	mov	r5,r19
   8382c:	dc400904 	addi	r17,sp,36
   83830:	dfc01515 	stw	ra,84(sp)
   83834:	da400115 	stw	r9,4(sp)
   83838:	d9c00315 	stw	r7,12(sp)
   8383c:	da000015 	stw	r8,0(sp)
   83840:	d9800215 	stw	r6,8(sp)
   83844:	00848c00 	call	848c0 <__unpack_d>
   83848:	d9000204 	addi	r4,sp,8
   8384c:	880b883a 	mov	r5,r17
   83850:	00848c00 	call	848c0 <__unpack_d>
   83854:	d8800a17 	ldw	r2,40(sp)
   83858:	880b883a 	mov	r5,r17
   8385c:	9809883a 	mov	r4,r19
   83860:	d9800e04 	addi	r6,sp,56
   83864:	1080005c 	xori	r2,r2,1
   83868:	d8800a15 	stw	r2,40(sp)
   8386c:	00833fc0 	call	833fc <_fpadd_parts>
   83870:	1009883a 	mov	r4,r2
   83874:	00845ac0 	call	845ac <__pack_d>
   83878:	dfc01517 	ldw	ra,84(sp)
   8387c:	dcc01417 	ldw	r19,80(sp)
   83880:	dc401317 	ldw	r17,76(sp)
   83884:	dec01604 	addi	sp,sp,88
   83888:	f800283a 	ret

0008388c <__adddf3>:
   8388c:	deffea04 	addi	sp,sp,-88
   83890:	dcc01415 	stw	r19,80(sp)
   83894:	dcc00404 	addi	r19,sp,16
   83898:	2011883a 	mov	r8,r4
   8389c:	2813883a 	mov	r9,r5
   838a0:	dc401315 	stw	r17,76(sp)
   838a4:	d809883a 	mov	r4,sp
   838a8:	980b883a 	mov	r5,r19
   838ac:	dc400904 	addi	r17,sp,36
   838b0:	dfc01515 	stw	ra,84(sp)
   838b4:	da400115 	stw	r9,4(sp)
   838b8:	d9c00315 	stw	r7,12(sp)
   838bc:	da000015 	stw	r8,0(sp)
   838c0:	d9800215 	stw	r6,8(sp)
   838c4:	00848c00 	call	848c0 <__unpack_d>
   838c8:	d9000204 	addi	r4,sp,8
   838cc:	880b883a 	mov	r5,r17
   838d0:	00848c00 	call	848c0 <__unpack_d>
   838d4:	d9800e04 	addi	r6,sp,56
   838d8:	9809883a 	mov	r4,r19
   838dc:	880b883a 	mov	r5,r17
   838e0:	00833fc0 	call	833fc <_fpadd_parts>
   838e4:	1009883a 	mov	r4,r2
   838e8:	00845ac0 	call	845ac <__pack_d>
   838ec:	dfc01517 	ldw	ra,84(sp)
   838f0:	dcc01417 	ldw	r19,80(sp)
   838f4:	dc401317 	ldw	r17,76(sp)
   838f8:	dec01604 	addi	sp,sp,88
   838fc:	f800283a 	ret

00083900 <__muldf3>:
   83900:	deffe004 	addi	sp,sp,-128
   83904:	dc401815 	stw	r17,96(sp)
   83908:	dc400404 	addi	r17,sp,16
   8390c:	2011883a 	mov	r8,r4
   83910:	2813883a 	mov	r9,r5
   83914:	dc001715 	stw	r16,92(sp)
   83918:	d809883a 	mov	r4,sp
   8391c:	880b883a 	mov	r5,r17
   83920:	dc000904 	addi	r16,sp,36
   83924:	dfc01f15 	stw	ra,124(sp)
   83928:	da400115 	stw	r9,4(sp)
   8392c:	d9c00315 	stw	r7,12(sp)
   83930:	da000015 	stw	r8,0(sp)
   83934:	d9800215 	stw	r6,8(sp)
   83938:	ddc01e15 	stw	r23,120(sp)
   8393c:	dd801d15 	stw	r22,116(sp)
   83940:	dd401c15 	stw	r21,112(sp)
   83944:	dd001b15 	stw	r20,108(sp)
   83948:	dcc01a15 	stw	r19,104(sp)
   8394c:	dc801915 	stw	r18,100(sp)
   83950:	00848c00 	call	848c0 <__unpack_d>
   83954:	d9000204 	addi	r4,sp,8
   83958:	800b883a 	mov	r5,r16
   8395c:	00848c00 	call	848c0 <__unpack_d>
   83960:	d9000417 	ldw	r4,16(sp)
   83964:	00800044 	movi	r2,1
   83968:	1100102e 	bgeu	r2,r4,839ac <__muldf3+0xac>
   8396c:	d8c00917 	ldw	r3,36(sp)
   83970:	10c0062e 	bgeu	r2,r3,8398c <__muldf3+0x8c>
   83974:	00800104 	movi	r2,4
   83978:	20800a26 	beq	r4,r2,839a4 <__muldf3+0xa4>
   8397c:	1880cc26 	beq	r3,r2,83cb0 <__muldf3+0x3b0>
   83980:	00800084 	movi	r2,2
   83984:	20800926 	beq	r4,r2,839ac <__muldf3+0xac>
   83988:	1880191e 	bne	r3,r2,839f0 <__muldf3+0xf0>
   8398c:	d8c00a17 	ldw	r3,40(sp)
   83990:	d8800517 	ldw	r2,20(sp)
   83994:	8009883a 	mov	r4,r16
   83998:	10c4c03a 	cmpne	r2,r2,r3
   8399c:	d8800a15 	stw	r2,40(sp)
   839a0:	00000706 	br	839c0 <__muldf3+0xc0>
   839a4:	00800084 	movi	r2,2
   839a8:	1880c326 	beq	r3,r2,83cb8 <__muldf3+0x3b8>
   839ac:	d8800517 	ldw	r2,20(sp)
   839b0:	d8c00a17 	ldw	r3,40(sp)
   839b4:	8809883a 	mov	r4,r17
   839b8:	10c4c03a 	cmpne	r2,r2,r3
   839bc:	d8800515 	stw	r2,20(sp)
   839c0:	00845ac0 	call	845ac <__pack_d>
   839c4:	dfc01f17 	ldw	ra,124(sp)
   839c8:	ddc01e17 	ldw	r23,120(sp)
   839cc:	dd801d17 	ldw	r22,116(sp)
   839d0:	dd401c17 	ldw	r21,112(sp)
   839d4:	dd001b17 	ldw	r20,108(sp)
   839d8:	dcc01a17 	ldw	r19,104(sp)
   839dc:	dc801917 	ldw	r18,100(sp)
   839e0:	dc401817 	ldw	r17,96(sp)
   839e4:	dc001717 	ldw	r16,92(sp)
   839e8:	dec02004 	addi	sp,sp,128
   839ec:	f800283a 	ret
   839f0:	dd800717 	ldw	r22,28(sp)
   839f4:	dc800c17 	ldw	r18,48(sp)
   839f8:	002b883a 	mov	r21,zero
   839fc:	0023883a 	mov	r17,zero
   83a00:	a80b883a 	mov	r5,r21
   83a04:	b00d883a 	mov	r6,r22
   83a08:	880f883a 	mov	r7,r17
   83a0c:	ddc00817 	ldw	r23,32(sp)
   83a10:	dcc00d17 	ldw	r19,52(sp)
   83a14:	9009883a 	mov	r4,r18
   83a18:	00844080 	call	84408 <__muldi3>
   83a1c:	001b883a 	mov	r13,zero
   83a20:	680f883a 	mov	r7,r13
   83a24:	b009883a 	mov	r4,r22
   83a28:	000b883a 	mov	r5,zero
   83a2c:	980d883a 	mov	r6,r19
   83a30:	b82d883a 	mov	r22,r23
   83a34:	002f883a 	mov	r23,zero
   83a38:	db401615 	stw	r13,88(sp)
   83a3c:	d8801315 	stw	r2,76(sp)
   83a40:	d8c01415 	stw	r3,80(sp)
   83a44:	dcc01515 	stw	r19,84(sp)
   83a48:	00844080 	call	84408 <__muldi3>
   83a4c:	b00d883a 	mov	r6,r22
   83a50:	000b883a 	mov	r5,zero
   83a54:	9009883a 	mov	r4,r18
   83a58:	b80f883a 	mov	r7,r23
   83a5c:	1021883a 	mov	r16,r2
   83a60:	1823883a 	mov	r17,r3
   83a64:	00844080 	call	84408 <__muldi3>
   83a68:	8085883a 	add	r2,r16,r2
   83a6c:	140d803a 	cmpltu	r6,r2,r16
   83a70:	88c7883a 	add	r3,r17,r3
   83a74:	30cd883a 	add	r6,r6,r3
   83a78:	1029883a 	mov	r20,r2
   83a7c:	302b883a 	mov	r21,r6
   83a80:	da801317 	ldw	r10,76(sp)
   83a84:	dac01417 	ldw	r11,80(sp)
   83a88:	db001517 	ldw	r12,84(sp)
   83a8c:	db401617 	ldw	r13,88(sp)
   83a90:	3440612e 	bgeu	r6,r17,83c18 <__muldf3+0x318>
   83a94:	0009883a 	mov	r4,zero
   83a98:	5105883a 	add	r2,r10,r4
   83a9c:	128d803a 	cmpltu	r6,r2,r10
   83aa0:	5d07883a 	add	r3,r11,r20
   83aa4:	30cd883a 	add	r6,r6,r3
   83aa8:	0021883a 	mov	r16,zero
   83aac:	04400044 	movi	r17,1
   83ab0:	1025883a 	mov	r18,r2
   83ab4:	3027883a 	mov	r19,r6
   83ab8:	32c06236 	bltu	r6,r11,83c44 <__muldf3+0x344>
   83abc:	59807a26 	beq	r11,r6,83ca8 <__muldf3+0x3a8>
   83ac0:	680b883a 	mov	r5,r13
   83ac4:	b80f883a 	mov	r7,r23
   83ac8:	6009883a 	mov	r4,r12
   83acc:	b00d883a 	mov	r6,r22
   83ad0:	00844080 	call	84408 <__muldi3>
   83ad4:	1009883a 	mov	r4,r2
   83ad8:	000f883a 	mov	r7,zero
   83adc:	1545883a 	add	r2,r2,r21
   83ae0:	1111803a 	cmpltu	r8,r2,r4
   83ae4:	19c7883a 	add	r3,r3,r7
   83ae8:	40c7883a 	add	r3,r8,r3
   83aec:	88cb883a 	add	r5,r17,r3
   83af0:	d8c00617 	ldw	r3,24(sp)
   83af4:	8089883a 	add	r4,r16,r2
   83af8:	d8800b17 	ldw	r2,44(sp)
   83afc:	18c00104 	addi	r3,r3,4
   83b00:	240d803a 	cmpltu	r6,r4,r16
   83b04:	10c7883a 	add	r3,r2,r3
   83b08:	2013883a 	mov	r9,r4
   83b0c:	d8800a17 	ldw	r2,40(sp)
   83b10:	d9000517 	ldw	r4,20(sp)
   83b14:	314d883a 	add	r6,r6,r5
   83b18:	3015883a 	mov	r10,r6
   83b1c:	2088c03a 	cmpne	r4,r4,r2
   83b20:	00880034 	movhi	r2,8192
   83b24:	10bfffc4 	addi	r2,r2,-1
   83b28:	d9000f15 	stw	r4,60(sp)
   83b2c:	d8c01015 	stw	r3,64(sp)
   83b30:	1180162e 	bgeu	r2,r6,83b8c <__muldf3+0x28c>
   83b34:	1811883a 	mov	r8,r3
   83b38:	101f883a 	mov	r15,r2
   83b3c:	980497fa 	slli	r2,r19,31
   83b40:	9016d07a 	srli	r11,r18,1
   83b44:	500697fa 	slli	r3,r10,31
   83b48:	480cd07a 	srli	r6,r9,1
   83b4c:	500ed07a 	srli	r7,r10,1
   83b50:	12d6b03a 	or	r11,r2,r11
   83b54:	00800044 	movi	r2,1
   83b58:	198cb03a 	or	r6,r3,r6
   83b5c:	4888703a 	and	r4,r9,r2
   83b60:	9818d07a 	srli	r12,r19,1
   83b64:	001b883a 	mov	r13,zero
   83b68:	03a00034 	movhi	r14,32768
   83b6c:	3013883a 	mov	r9,r6
   83b70:	3815883a 	mov	r10,r7
   83b74:	4091883a 	add	r8,r8,r2
   83b78:	20000226 	beq	r4,zero,83b84 <__muldf3+0x284>
   83b7c:	5b64b03a 	or	r18,r11,r13
   83b80:	63a6b03a 	or	r19,r12,r14
   83b84:	7abfed36 	bltu	r15,r10,83b3c <__muldf3+0x23c>
   83b88:	da001015 	stw	r8,64(sp)
   83b8c:	00840034 	movhi	r2,4096
   83b90:	10bfffc4 	addi	r2,r2,-1
   83b94:	12801436 	bltu	r2,r10,83be8 <__muldf3+0x2e8>
   83b98:	da001017 	ldw	r8,64(sp)
   83b9c:	101f883a 	mov	r15,r2
   83ba0:	4a45883a 	add	r2,r9,r9
   83ba4:	124d803a 	cmpltu	r6,r2,r9
   83ba8:	5287883a 	add	r3,r10,r10
   83bac:	9497883a 	add	r11,r18,r18
   83bb0:	5c8f803a 	cmpltu	r7,r11,r18
   83bb4:	9cd9883a 	add	r12,r19,r19
   83bb8:	01000044 	movi	r4,1
   83bbc:	30cd883a 	add	r6,r6,r3
   83bc0:	3b0f883a 	add	r7,r7,r12
   83bc4:	423fffc4 	addi	r8,r8,-1
   83bc8:	1013883a 	mov	r9,r2
   83bcc:	3015883a 	mov	r10,r6
   83bd0:	111ab03a 	or	r13,r2,r4
   83bd4:	98003016 	blt	r19,zero,83c98 <__muldf3+0x398>
   83bd8:	5825883a 	mov	r18,r11
   83bdc:	3827883a 	mov	r19,r7
   83be0:	7abfef2e 	bgeu	r15,r10,83ba0 <__muldf3+0x2a0>
   83be4:	da001015 	stw	r8,64(sp)
   83be8:	00803fc4 	movi	r2,255
   83bec:	488e703a 	and	r7,r9,r2
   83bf0:	00802004 	movi	r2,128
   83bf4:	0007883a 	mov	r3,zero
   83bf8:	0011883a 	mov	r8,zero
   83bfc:	38801826 	beq	r7,r2,83c60 <__muldf3+0x360>
   83c00:	008000c4 	movi	r2,3
   83c04:	d9000e04 	addi	r4,sp,56
   83c08:	da801215 	stw	r10,72(sp)
   83c0c:	d8800e15 	stw	r2,56(sp)
   83c10:	da401115 	stw	r9,68(sp)
   83c14:	003f6a06 	br	839c0 <__muldf3+0xc0>
   83c18:	89802126 	beq	r17,r6,83ca0 <__muldf3+0x3a0>
   83c1c:	0009883a 	mov	r4,zero
   83c20:	5105883a 	add	r2,r10,r4
   83c24:	128d803a 	cmpltu	r6,r2,r10
   83c28:	5d07883a 	add	r3,r11,r20
   83c2c:	30cd883a 	add	r6,r6,r3
   83c30:	0021883a 	mov	r16,zero
   83c34:	0023883a 	mov	r17,zero
   83c38:	1025883a 	mov	r18,r2
   83c3c:	3027883a 	mov	r19,r6
   83c40:	32ff9e2e 	bgeu	r6,r11,83abc <__muldf3+0x1bc>
   83c44:	00800044 	movi	r2,1
   83c48:	8089883a 	add	r4,r16,r2
   83c4c:	240d803a 	cmpltu	r6,r4,r16
   83c50:	344d883a 	add	r6,r6,r17
   83c54:	2021883a 	mov	r16,r4
   83c58:	3023883a 	mov	r17,r6
   83c5c:	003f9806 	br	83ac0 <__muldf3+0x1c0>
   83c60:	403fe71e 	bne	r8,zero,83c00 <__muldf3+0x300>
   83c64:	01004004 	movi	r4,256
   83c68:	4904703a 	and	r2,r9,r4
   83c6c:	10c4b03a 	or	r2,r2,r3
   83c70:	103fe31e 	bne	r2,zero,83c00 <__muldf3+0x300>
   83c74:	94c4b03a 	or	r2,r18,r19
   83c78:	103fe126 	beq	r2,zero,83c00 <__muldf3+0x300>
   83c7c:	49c5883a 	add	r2,r9,r7
   83c80:	1251803a 	cmpltu	r8,r2,r9
   83c84:	4291883a 	add	r8,r8,r10
   83c88:	013fc004 	movi	r4,-256
   83c8c:	1112703a 	and	r9,r2,r4
   83c90:	4015883a 	mov	r10,r8
   83c94:	003fda06 	br	83c00 <__muldf3+0x300>
   83c98:	6813883a 	mov	r9,r13
   83c9c:	003fce06 	br	83bd8 <__muldf3+0x2d8>
   83ca0:	143f7c36 	bltu	r2,r16,83a94 <__muldf3+0x194>
   83ca4:	003fdd06 	br	83c1c <__muldf3+0x31c>
   83ca8:	12bf852e 	bgeu	r2,r10,83ac0 <__muldf3+0x1c0>
   83cac:	003fe506 	br	83c44 <__muldf3+0x344>
   83cb0:	00800084 	movi	r2,2
   83cb4:	20bf351e 	bne	r4,r2,8398c <__muldf3+0x8c>
   83cb8:	01000274 	movhi	r4,9
   83cbc:	210ac304 	addi	r4,r4,11020
   83cc0:	003f3f06 	br	839c0 <__muldf3+0xc0>

00083cc4 <__divdf3>:
   83cc4:	deffed04 	addi	sp,sp,-76
   83cc8:	dcc01115 	stw	r19,68(sp)
   83ccc:	dcc00404 	addi	r19,sp,16
   83cd0:	2011883a 	mov	r8,r4
   83cd4:	2813883a 	mov	r9,r5
   83cd8:	dc000e15 	stw	r16,56(sp)
   83cdc:	d809883a 	mov	r4,sp
   83ce0:	980b883a 	mov	r5,r19
   83ce4:	dc000904 	addi	r16,sp,36
   83ce8:	dfc01215 	stw	ra,72(sp)
   83cec:	da400115 	stw	r9,4(sp)
   83cf0:	d9c00315 	stw	r7,12(sp)
   83cf4:	da000015 	stw	r8,0(sp)
   83cf8:	d9800215 	stw	r6,8(sp)
   83cfc:	dc801015 	stw	r18,64(sp)
   83d00:	dc400f15 	stw	r17,60(sp)
   83d04:	00848c00 	call	848c0 <__unpack_d>
   83d08:	d9000204 	addi	r4,sp,8
   83d0c:	800b883a 	mov	r5,r16
   83d10:	00848c00 	call	848c0 <__unpack_d>
   83d14:	d9000417 	ldw	r4,16(sp)
   83d18:	00800044 	movi	r2,1
   83d1c:	11000b2e 	bgeu	r2,r4,83d4c <__divdf3+0x88>
   83d20:	d9400917 	ldw	r5,36(sp)
   83d24:	1140762e 	bgeu	r2,r5,83f00 <__divdf3+0x23c>
   83d28:	d8800517 	ldw	r2,20(sp)
   83d2c:	d8c00a17 	ldw	r3,40(sp)
   83d30:	01800104 	movi	r6,4
   83d34:	10c4f03a 	xor	r2,r2,r3
   83d38:	d8800515 	stw	r2,20(sp)
   83d3c:	21800226 	beq	r4,r6,83d48 <__divdf3+0x84>
   83d40:	00800084 	movi	r2,2
   83d44:	2080141e 	bne	r4,r2,83d98 <__divdf3+0xd4>
   83d48:	29000926 	beq	r5,r4,83d70 <__divdf3+0xac>
   83d4c:	9809883a 	mov	r4,r19
   83d50:	00845ac0 	call	845ac <__pack_d>
   83d54:	dfc01217 	ldw	ra,72(sp)
   83d58:	dcc01117 	ldw	r19,68(sp)
   83d5c:	dc801017 	ldw	r18,64(sp)
   83d60:	dc400f17 	ldw	r17,60(sp)
   83d64:	dc000e17 	ldw	r16,56(sp)
   83d68:	dec01304 	addi	sp,sp,76
   83d6c:	f800283a 	ret
   83d70:	01000274 	movhi	r4,9
   83d74:	210ac304 	addi	r4,r4,11020
   83d78:	00845ac0 	call	845ac <__pack_d>
   83d7c:	dfc01217 	ldw	ra,72(sp)
   83d80:	dcc01117 	ldw	r19,68(sp)
   83d84:	dc801017 	ldw	r18,64(sp)
   83d88:	dc400f17 	ldw	r17,60(sp)
   83d8c:	dc000e17 	ldw	r16,56(sp)
   83d90:	dec01304 	addi	sp,sp,76
   83d94:	f800283a 	ret
   83d98:	29805b26 	beq	r5,r6,83f08 <__divdf3+0x244>
   83d9c:	28802d26 	beq	r5,r2,83e54 <__divdf3+0x190>
   83da0:	d8c00617 	ldw	r3,24(sp)
   83da4:	d8800b17 	ldw	r2,44(sp)
   83da8:	d9c00817 	ldw	r7,32(sp)
   83dac:	dc400d17 	ldw	r17,52(sp)
   83db0:	188bc83a 	sub	r5,r3,r2
   83db4:	d9800717 	ldw	r6,28(sp)
   83db8:	dc000c17 	ldw	r16,48(sp)
   83dbc:	d9400615 	stw	r5,24(sp)
   83dc0:	3c403836 	bltu	r7,r17,83ea4 <__divdf3+0x1e0>
   83dc4:	89c03626 	beq	r17,r7,83ea0 <__divdf3+0x1dc>
   83dc8:	0015883a 	mov	r10,zero
   83dcc:	001d883a 	mov	r14,zero
   83dd0:	02c40034 	movhi	r11,4096
   83dd4:	001f883a 	mov	r15,zero
   83dd8:	003f883a 	mov	ra,zero
   83ddc:	04800f44 	movi	r18,61
   83de0:	00000f06 	br	83e20 <__divdf3+0x15c>
   83de4:	601d883a 	mov	r14,r12
   83de8:	681f883a 	mov	r15,r13
   83dec:	400d883a 	mov	r6,r8
   83df0:	100f883a 	mov	r7,r2
   83df4:	3191883a 	add	r8,r6,r6
   83df8:	5808d07a 	srli	r4,r11,1
   83dfc:	4185803a 	cmpltu	r2,r8,r6
   83e00:	39d3883a 	add	r9,r7,r7
   83e04:	28c6b03a 	or	r3,r5,r3
   83e08:	1245883a 	add	r2,r2,r9
   83e0c:	1815883a 	mov	r10,r3
   83e10:	2017883a 	mov	r11,r4
   83e14:	400d883a 	mov	r6,r8
   83e18:	100f883a 	mov	r7,r2
   83e1c:	fc801726 	beq	ra,r18,83e7c <__divdf3+0x1b8>
   83e20:	580a97fa 	slli	r5,r11,31
   83e24:	5006d07a 	srli	r3,r10,1
   83e28:	ffc00044 	addi	ra,ra,1
   83e2c:	3c7ff136 	bltu	r7,r17,83df4 <__divdf3+0x130>
   83e30:	3411c83a 	sub	r8,r6,r16
   83e34:	3205803a 	cmpltu	r2,r6,r8
   83e38:	3c53c83a 	sub	r9,r7,r17
   83e3c:	7298b03a 	or	r12,r14,r10
   83e40:	7adab03a 	or	r13,r15,r11
   83e44:	4885c83a 	sub	r2,r9,r2
   83e48:	89ffe61e 	bne	r17,r7,83de4 <__divdf3+0x120>
   83e4c:	343fe936 	bltu	r6,r16,83df4 <__divdf3+0x130>
   83e50:	003fe406 	br	83de4 <__divdf3+0x120>
   83e54:	9809883a 	mov	r4,r19
   83e58:	d9800415 	stw	r6,16(sp)
   83e5c:	00845ac0 	call	845ac <__pack_d>
   83e60:	dfc01217 	ldw	ra,72(sp)
   83e64:	dcc01117 	ldw	r19,68(sp)
   83e68:	dc801017 	ldw	r18,64(sp)
   83e6c:	dc400f17 	ldw	r17,60(sp)
   83e70:	dc000e17 	ldw	r16,56(sp)
   83e74:	dec01304 	addi	sp,sp,76
   83e78:	f800283a 	ret
   83e7c:	00803fc4 	movi	r2,255
   83e80:	7090703a 	and	r8,r14,r2
   83e84:	00802004 	movi	r2,128
   83e88:	0007883a 	mov	r3,zero
   83e8c:	0013883a 	mov	r9,zero
   83e90:	40800d26 	beq	r8,r2,83ec8 <__divdf3+0x204>
   83e94:	dbc00815 	stw	r15,32(sp)
   83e98:	db800715 	stw	r14,28(sp)
   83e9c:	003fab06 	br	83d4c <__divdf3+0x88>
   83ea0:	343fc92e 	bgeu	r6,r16,83dc8 <__divdf3+0x104>
   83ea4:	3185883a 	add	r2,r6,r6
   83ea8:	1189803a 	cmpltu	r4,r2,r6
   83eac:	39c7883a 	add	r3,r7,r7
   83eb0:	20c9883a 	add	r4,r4,r3
   83eb4:	297fffc4 	addi	r5,r5,-1
   83eb8:	100d883a 	mov	r6,r2
   83ebc:	200f883a 	mov	r7,r4
   83ec0:	d9400615 	stw	r5,24(sp)
   83ec4:	003fc006 	br	83dc8 <__divdf3+0x104>
   83ec8:	483ff21e 	bne	r9,zero,83e94 <__divdf3+0x1d0>
   83ecc:	01004004 	movi	r4,256
   83ed0:	7104703a 	and	r2,r14,r4
   83ed4:	10c4b03a 	or	r2,r2,r3
   83ed8:	103fee1e 	bne	r2,zero,83e94 <__divdf3+0x1d0>
   83edc:	31c4b03a 	or	r2,r6,r7
   83ee0:	103fec26 	beq	r2,zero,83e94 <__divdf3+0x1d0>
   83ee4:	7205883a 	add	r2,r14,r8
   83ee8:	1391803a 	cmpltu	r8,r2,r14
   83eec:	43d1883a 	add	r8,r8,r15
   83ef0:	013fc004 	movi	r4,-256
   83ef4:	111c703a 	and	r14,r2,r4
   83ef8:	401f883a 	mov	r15,r8
   83efc:	003fe506 	br	83e94 <__divdf3+0x1d0>
   83f00:	8009883a 	mov	r4,r16
   83f04:	003f9206 	br	83d50 <__divdf3+0x8c>
   83f08:	9809883a 	mov	r4,r19
   83f0c:	d8000715 	stw	zero,28(sp)
   83f10:	d8000815 	stw	zero,32(sp)
   83f14:	d8000615 	stw	zero,24(sp)
   83f18:	003f8d06 	br	83d50 <__divdf3+0x8c>

00083f1c <__eqdf2>:
   83f1c:	deffef04 	addi	sp,sp,-68
   83f20:	dc400f15 	stw	r17,60(sp)
   83f24:	dc400404 	addi	r17,sp,16
   83f28:	2005883a 	mov	r2,r4
   83f2c:	2807883a 	mov	r3,r5
   83f30:	dc000e15 	stw	r16,56(sp)
   83f34:	d809883a 	mov	r4,sp
   83f38:	880b883a 	mov	r5,r17
   83f3c:	dc000904 	addi	r16,sp,36
   83f40:	d8c00115 	stw	r3,4(sp)
   83f44:	d8800015 	stw	r2,0(sp)
   83f48:	d9800215 	stw	r6,8(sp)
   83f4c:	dfc01015 	stw	ra,64(sp)
   83f50:	d9c00315 	stw	r7,12(sp)
   83f54:	00848c00 	call	848c0 <__unpack_d>
   83f58:	d9000204 	addi	r4,sp,8
   83f5c:	800b883a 	mov	r5,r16
   83f60:	00848c00 	call	848c0 <__unpack_d>
   83f64:	d8800417 	ldw	r2,16(sp)
   83f68:	00c00044 	movi	r3,1
   83f6c:	180d883a 	mov	r6,r3
   83f70:	1880062e 	bgeu	r3,r2,83f8c <__eqdf2+0x70>
   83f74:	d8800917 	ldw	r2,36(sp)
   83f78:	8809883a 	mov	r4,r17
   83f7c:	800b883a 	mov	r5,r16
   83f80:	1880022e 	bgeu	r3,r2,83f8c <__eqdf2+0x70>
   83f84:	00849f80 	call	849f8 <__fpcmp_parts_d>
   83f88:	100d883a 	mov	r6,r2
   83f8c:	3005883a 	mov	r2,r6
   83f90:	dfc01017 	ldw	ra,64(sp)
   83f94:	dc400f17 	ldw	r17,60(sp)
   83f98:	dc000e17 	ldw	r16,56(sp)
   83f9c:	dec01104 	addi	sp,sp,68
   83fa0:	f800283a 	ret

00083fa4 <__gtdf2>:
   83fa4:	deffef04 	addi	sp,sp,-68
   83fa8:	dc400f15 	stw	r17,60(sp)
   83fac:	dc400404 	addi	r17,sp,16
   83fb0:	2005883a 	mov	r2,r4
   83fb4:	2807883a 	mov	r3,r5
   83fb8:	dc000e15 	stw	r16,56(sp)
   83fbc:	d809883a 	mov	r4,sp
   83fc0:	880b883a 	mov	r5,r17
   83fc4:	dc000904 	addi	r16,sp,36
   83fc8:	d8c00115 	stw	r3,4(sp)
   83fcc:	d8800015 	stw	r2,0(sp)
   83fd0:	d9800215 	stw	r6,8(sp)
   83fd4:	dfc01015 	stw	ra,64(sp)
   83fd8:	d9c00315 	stw	r7,12(sp)
   83fdc:	00848c00 	call	848c0 <__unpack_d>
   83fe0:	d9000204 	addi	r4,sp,8
   83fe4:	800b883a 	mov	r5,r16
   83fe8:	00848c00 	call	848c0 <__unpack_d>
   83fec:	d8800417 	ldw	r2,16(sp)
   83ff0:	00c00044 	movi	r3,1
   83ff4:	01bfffc4 	movi	r6,-1
   83ff8:	1880062e 	bgeu	r3,r2,84014 <__gtdf2+0x70>
   83ffc:	d8800917 	ldw	r2,36(sp)
   84000:	8809883a 	mov	r4,r17
   84004:	800b883a 	mov	r5,r16
   84008:	1880022e 	bgeu	r3,r2,84014 <__gtdf2+0x70>
   8400c:	00849f80 	call	849f8 <__fpcmp_parts_d>
   84010:	100d883a 	mov	r6,r2
   84014:	3005883a 	mov	r2,r6
   84018:	dfc01017 	ldw	ra,64(sp)
   8401c:	dc400f17 	ldw	r17,60(sp)
   84020:	dc000e17 	ldw	r16,56(sp)
   84024:	dec01104 	addi	sp,sp,68
   84028:	f800283a 	ret

0008402c <__gedf2>:
   8402c:	deffef04 	addi	sp,sp,-68
   84030:	dc400f15 	stw	r17,60(sp)
   84034:	dc400404 	addi	r17,sp,16
   84038:	2005883a 	mov	r2,r4
   8403c:	2807883a 	mov	r3,r5
   84040:	dc000e15 	stw	r16,56(sp)
   84044:	d809883a 	mov	r4,sp
   84048:	880b883a 	mov	r5,r17
   8404c:	dc000904 	addi	r16,sp,36
   84050:	d8c00115 	stw	r3,4(sp)
   84054:	d8800015 	stw	r2,0(sp)
   84058:	d9800215 	stw	r6,8(sp)
   8405c:	dfc01015 	stw	ra,64(sp)
   84060:	d9c00315 	stw	r7,12(sp)
   84064:	00848c00 	call	848c0 <__unpack_d>
   84068:	d9000204 	addi	r4,sp,8
   8406c:	800b883a 	mov	r5,r16
   84070:	00848c00 	call	848c0 <__unpack_d>
   84074:	d8800417 	ldw	r2,16(sp)
   84078:	00c00044 	movi	r3,1
   8407c:	01bfffc4 	movi	r6,-1
   84080:	1880062e 	bgeu	r3,r2,8409c <__gedf2+0x70>
   84084:	d8800917 	ldw	r2,36(sp)
   84088:	8809883a 	mov	r4,r17
   8408c:	800b883a 	mov	r5,r16
   84090:	1880022e 	bgeu	r3,r2,8409c <__gedf2+0x70>
   84094:	00849f80 	call	849f8 <__fpcmp_parts_d>
   84098:	100d883a 	mov	r6,r2
   8409c:	3005883a 	mov	r2,r6
   840a0:	dfc01017 	ldw	ra,64(sp)
   840a4:	dc400f17 	ldw	r17,60(sp)
   840a8:	dc000e17 	ldw	r16,56(sp)
   840ac:	dec01104 	addi	sp,sp,68
   840b0:	f800283a 	ret

000840b4 <__floatsidf>:
   840b4:	2006d7fa 	srli	r3,r4,31
   840b8:	defff604 	addi	sp,sp,-40
   840bc:	008000c4 	movi	r2,3
   840c0:	dfc00915 	stw	ra,36(sp)
   840c4:	dcc00815 	stw	r19,32(sp)
   840c8:	dc800715 	stw	r18,28(sp)
   840cc:	dc400615 	stw	r17,24(sp)
   840d0:	dc000515 	stw	r16,20(sp)
   840d4:	d8800015 	stw	r2,0(sp)
   840d8:	d8c00115 	stw	r3,4(sp)
   840dc:	20000f1e 	bne	r4,zero,8411c <__floatsidf+0x68>
   840e0:	00800084 	movi	r2,2
   840e4:	d8800015 	stw	r2,0(sp)
   840e8:	d809883a 	mov	r4,sp
   840ec:	00845ac0 	call	845ac <__pack_d>
   840f0:	1009883a 	mov	r4,r2
   840f4:	180b883a 	mov	r5,r3
   840f8:	2005883a 	mov	r2,r4
   840fc:	2807883a 	mov	r3,r5
   84100:	dfc00917 	ldw	ra,36(sp)
   84104:	dcc00817 	ldw	r19,32(sp)
   84108:	dc800717 	ldw	r18,28(sp)
   8410c:	dc400617 	ldw	r17,24(sp)
   84110:	dc000517 	ldw	r16,20(sp)
   84114:	dec00a04 	addi	sp,sp,40
   84118:	f800283a 	ret
   8411c:	00800f04 	movi	r2,60
   84120:	1807003a 	cmpeq	r3,r3,zero
   84124:	d8800215 	stw	r2,8(sp)
   84128:	18001126 	beq	r3,zero,84170 <__floatsidf+0xbc>
   8412c:	0027883a 	mov	r19,zero
   84130:	2025883a 	mov	r18,r4
   84134:	d9000315 	stw	r4,12(sp)
   84138:	dcc00415 	stw	r19,16(sp)
   8413c:	008452c0 	call	8452c <__clzsi2>
   84140:	11000744 	addi	r4,r2,29
   84144:	013fe80e 	bge	zero,r4,840e8 <__floatsidf+0x34>
   84148:	10bfff44 	addi	r2,r2,-3
   8414c:	10000c16 	blt	r2,zero,84180 <__floatsidf+0xcc>
   84150:	90a2983a 	sll	r17,r18,r2
   84154:	0021883a 	mov	r16,zero
   84158:	d8800217 	ldw	r2,8(sp)
   8415c:	dc400415 	stw	r17,16(sp)
   84160:	dc000315 	stw	r16,12(sp)
   84164:	1105c83a 	sub	r2,r2,r4
   84168:	d8800215 	stw	r2,8(sp)
   8416c:	003fde06 	br	840e8 <__floatsidf+0x34>
   84170:	00a00034 	movhi	r2,32768
   84174:	20800a26 	beq	r4,r2,841a0 <__floatsidf+0xec>
   84178:	0109c83a 	sub	r4,zero,r4
   8417c:	003feb06 	br	8412c <__floatsidf+0x78>
   84180:	9006d07a 	srli	r3,r18,1
   84184:	008007c4 	movi	r2,31
   84188:	1105c83a 	sub	r2,r2,r4
   8418c:	1886d83a 	srl	r3,r3,r2
   84190:	9922983a 	sll	r17,r19,r4
   84194:	9120983a 	sll	r16,r18,r4
   84198:	1c62b03a 	or	r17,r3,r17
   8419c:	003fee06 	br	84158 <__floatsidf+0xa4>
   841a0:	0009883a 	mov	r4,zero
   841a4:	01707834 	movhi	r5,49632
   841a8:	003fd306 	br	840f8 <__floatsidf+0x44>

000841ac <__fixdfsi>:
   841ac:	defff804 	addi	sp,sp,-32
   841b0:	2005883a 	mov	r2,r4
   841b4:	2807883a 	mov	r3,r5
   841b8:	d809883a 	mov	r4,sp
   841bc:	d9400204 	addi	r5,sp,8
   841c0:	d8c00115 	stw	r3,4(sp)
   841c4:	d8800015 	stw	r2,0(sp)
   841c8:	dfc00715 	stw	ra,28(sp)
   841cc:	00848c00 	call	848c0 <__unpack_d>
   841d0:	d8c00217 	ldw	r3,8(sp)
   841d4:	00800084 	movi	r2,2
   841d8:	1880051e 	bne	r3,r2,841f0 <__fixdfsi+0x44>
   841dc:	0007883a 	mov	r3,zero
   841e0:	1805883a 	mov	r2,r3
   841e4:	dfc00717 	ldw	ra,28(sp)
   841e8:	dec00804 	addi	sp,sp,32
   841ec:	f800283a 	ret
   841f0:	00800044 	movi	r2,1
   841f4:	10fff92e 	bgeu	r2,r3,841dc <__fixdfsi+0x30>
   841f8:	00800104 	movi	r2,4
   841fc:	18800426 	beq	r3,r2,84210 <__fixdfsi+0x64>
   84200:	d8c00417 	ldw	r3,16(sp)
   84204:	183ff516 	blt	r3,zero,841dc <__fixdfsi+0x30>
   84208:	00800784 	movi	r2,30
   8420c:	10c0080e 	bge	r2,r3,84230 <__fixdfsi+0x84>
   84210:	d8800317 	ldw	r2,12(sp)
   84214:	1000121e 	bne	r2,zero,84260 <__fixdfsi+0xb4>
   84218:	00e00034 	movhi	r3,32768
   8421c:	18ffffc4 	addi	r3,r3,-1
   84220:	1805883a 	mov	r2,r3
   84224:	dfc00717 	ldw	ra,28(sp)
   84228:	dec00804 	addi	sp,sp,32
   8422c:	f800283a 	ret
   84230:	00800f04 	movi	r2,60
   84234:	10d1c83a 	sub	r8,r2,r3
   84238:	40bff804 	addi	r2,r8,-32
   8423c:	d9800517 	ldw	r6,20(sp)
   84240:	d9c00617 	ldw	r7,24(sp)
   84244:	10000816 	blt	r2,zero,84268 <__fixdfsi+0xbc>
   84248:	3888d83a 	srl	r4,r7,r2
   8424c:	d8800317 	ldw	r2,12(sp)
   84250:	2007883a 	mov	r3,r4
   84254:	103fe226 	beq	r2,zero,841e0 <__fixdfsi+0x34>
   84258:	0107c83a 	sub	r3,zero,r4
   8425c:	003fe006 	br	841e0 <__fixdfsi+0x34>
   84260:	00e00034 	movhi	r3,32768
   84264:	003fde06 	br	841e0 <__fixdfsi+0x34>
   84268:	39c7883a 	add	r3,r7,r7
   8426c:	008007c4 	movi	r2,31
   84270:	1205c83a 	sub	r2,r2,r8
   84274:	1886983a 	sll	r3,r3,r2
   84278:	3208d83a 	srl	r4,r6,r8
   8427c:	1908b03a 	or	r4,r3,r4
   84280:	003ff206 	br	8424c <__fixdfsi+0xa0>

00084284 <udivmodsi4>:
   84284:	29001b2e 	bgeu	r5,r4,842f4 <udivmodsi4+0x70>
   84288:	28001a16 	blt	r5,zero,842f4 <udivmodsi4+0x70>
   8428c:	00800044 	movi	r2,1
   84290:	0007883a 	mov	r3,zero
   84294:	01c007c4 	movi	r7,31
   84298:	00000306 	br	842a8 <udivmodsi4+0x24>
   8429c:	19c01326 	beq	r3,r7,842ec <udivmodsi4+0x68>
   842a0:	18c00044 	addi	r3,r3,1
   842a4:	28000416 	blt	r5,zero,842b8 <udivmodsi4+0x34>
   842a8:	294b883a 	add	r5,r5,r5
   842ac:	1085883a 	add	r2,r2,r2
   842b0:	293ffa36 	bltu	r5,r4,8429c <udivmodsi4+0x18>
   842b4:	10000d26 	beq	r2,zero,842ec <udivmodsi4+0x68>
   842b8:	0007883a 	mov	r3,zero
   842bc:	21400236 	bltu	r4,r5,842c8 <udivmodsi4+0x44>
   842c0:	2149c83a 	sub	r4,r4,r5
   842c4:	1886b03a 	or	r3,r3,r2
   842c8:	1004d07a 	srli	r2,r2,1
   842cc:	280ad07a 	srli	r5,r5,1
   842d0:	103ffa1e 	bne	r2,zero,842bc <udivmodsi4+0x38>
   842d4:	30000226 	beq	r6,zero,842e0 <udivmodsi4+0x5c>
   842d8:	2005883a 	mov	r2,r4
   842dc:	f800283a 	ret
   842e0:	1809883a 	mov	r4,r3
   842e4:	2005883a 	mov	r2,r4
   842e8:	f800283a 	ret
   842ec:	0007883a 	mov	r3,zero
   842f0:	003ff806 	br	842d4 <udivmodsi4+0x50>
   842f4:	00800044 	movi	r2,1
   842f8:	0007883a 	mov	r3,zero
   842fc:	003fef06 	br	842bc <udivmodsi4+0x38>

00084300 <__divsi3>:
   84300:	defffe04 	addi	sp,sp,-8
   84304:	dc000015 	stw	r16,0(sp)
   84308:	dfc00115 	stw	ra,4(sp)
   8430c:	0021883a 	mov	r16,zero
   84310:	20000c16 	blt	r4,zero,84344 <__divsi3+0x44>
   84314:	000d883a 	mov	r6,zero
   84318:	28000e16 	blt	r5,zero,84354 <__divsi3+0x54>
   8431c:	00842840 	call	84284 <udivmodsi4>
   84320:	1007883a 	mov	r3,r2
   84324:	8005003a 	cmpeq	r2,r16,zero
   84328:	1000011e 	bne	r2,zero,84330 <__divsi3+0x30>
   8432c:	00c7c83a 	sub	r3,zero,r3
   84330:	1805883a 	mov	r2,r3
   84334:	dfc00117 	ldw	ra,4(sp)
   84338:	dc000017 	ldw	r16,0(sp)
   8433c:	dec00204 	addi	sp,sp,8
   84340:	f800283a 	ret
   84344:	0109c83a 	sub	r4,zero,r4
   84348:	04000044 	movi	r16,1
   8434c:	000d883a 	mov	r6,zero
   84350:	283ff20e 	bge	r5,zero,8431c <__divsi3+0x1c>
   84354:	014bc83a 	sub	r5,zero,r5
   84358:	8021003a 	cmpeq	r16,r16,zero
   8435c:	003fef06 	br	8431c <__divsi3+0x1c>

00084360 <__modsi3>:
   84360:	deffff04 	addi	sp,sp,-4
   84364:	dfc00015 	stw	ra,0(sp)
   84368:	01800044 	movi	r6,1
   8436c:	2807883a 	mov	r3,r5
   84370:	20000416 	blt	r4,zero,84384 <__modsi3+0x24>
   84374:	28000c16 	blt	r5,zero,843a8 <__modsi3+0x48>
   84378:	dfc00017 	ldw	ra,0(sp)
   8437c:	dec00104 	addi	sp,sp,4
   84380:	00842841 	jmpi	84284 <udivmodsi4>
   84384:	0109c83a 	sub	r4,zero,r4
   84388:	28000b16 	blt	r5,zero,843b8 <__modsi3+0x58>
   8438c:	180b883a 	mov	r5,r3
   84390:	01800044 	movi	r6,1
   84394:	00842840 	call	84284 <udivmodsi4>
   84398:	0085c83a 	sub	r2,zero,r2
   8439c:	dfc00017 	ldw	ra,0(sp)
   843a0:	dec00104 	addi	sp,sp,4
   843a4:	f800283a 	ret
   843a8:	014bc83a 	sub	r5,zero,r5
   843ac:	dfc00017 	ldw	ra,0(sp)
   843b0:	dec00104 	addi	sp,sp,4
   843b4:	00842841 	jmpi	84284 <udivmodsi4>
   843b8:	0147c83a 	sub	r3,zero,r5
   843bc:	003ff306 	br	8438c <__modsi3+0x2c>

000843c0 <__udivsi3>:
   843c0:	000d883a 	mov	r6,zero
   843c4:	00842841 	jmpi	84284 <udivmodsi4>

000843c8 <__umodsi3>:
   843c8:	01800044 	movi	r6,1
   843cc:	00842841 	jmpi	84284 <udivmodsi4>

000843d0 <__mulsi3>:
   843d0:	20000a26 	beq	r4,zero,843fc <__mulsi3+0x2c>
   843d4:	0007883a 	mov	r3,zero
   843d8:	2080004c 	andi	r2,r4,1
   843dc:	1005003a 	cmpeq	r2,r2,zero
   843e0:	2008d07a 	srli	r4,r4,1
   843e4:	1000011e 	bne	r2,zero,843ec <__mulsi3+0x1c>
   843e8:	1947883a 	add	r3,r3,r5
   843ec:	294b883a 	add	r5,r5,r5
   843f0:	203ff91e 	bne	r4,zero,843d8 <__mulsi3+0x8>
   843f4:	1805883a 	mov	r2,r3
   843f8:	f800283a 	ret
   843fc:	0007883a 	mov	r3,zero
   84400:	1805883a 	mov	r2,r3
   84404:	f800283a 	ret

00084408 <__muldi3>:
   84408:	defff204 	addi	sp,sp,-56
   8440c:	df000c15 	stw	fp,48(sp)
   84410:	3038d43a 	srli	fp,r6,16
   84414:	dd000815 	stw	r20,32(sp)
   84418:	dc400515 	stw	r17,20(sp)
   8441c:	2028d43a 	srli	r20,r4,16
   84420:	247fffcc 	andi	r17,r4,65535
   84424:	dc000415 	stw	r16,16(sp)
   84428:	343fffcc 	andi	r16,r6,65535
   8442c:	dcc00715 	stw	r19,28(sp)
   84430:	d9000015 	stw	r4,0(sp)
   84434:	2827883a 	mov	r19,r5
   84438:	8809883a 	mov	r4,r17
   8443c:	d9400115 	stw	r5,4(sp)
   84440:	800b883a 	mov	r5,r16
   84444:	d9800215 	stw	r6,8(sp)
   84448:	dfc00d15 	stw	ra,52(sp)
   8444c:	d9c00315 	stw	r7,12(sp)
   84450:	dd800a15 	stw	r22,40(sp)
   84454:	dd400915 	stw	r21,36(sp)
   84458:	302d883a 	mov	r22,r6
   8445c:	ddc00b15 	stw	r23,44(sp)
   84460:	dc800615 	stw	r18,24(sp)
   84464:	00843d00 	call	843d0 <__mulsi3>
   84468:	8809883a 	mov	r4,r17
   8446c:	e00b883a 	mov	r5,fp
   84470:	102b883a 	mov	r21,r2
   84474:	00843d00 	call	843d0 <__mulsi3>
   84478:	800b883a 	mov	r5,r16
   8447c:	a009883a 	mov	r4,r20
   84480:	1023883a 	mov	r17,r2
   84484:	00843d00 	call	843d0 <__mulsi3>
   84488:	a009883a 	mov	r4,r20
   8448c:	e00b883a 	mov	r5,fp
   84490:	1021883a 	mov	r16,r2
   84494:	00843d00 	call	843d0 <__mulsi3>
   84498:	a8ffffcc 	andi	r3,r21,65535
   8449c:	a82ad43a 	srli	r21,r21,16
   844a0:	8c23883a 	add	r17,r17,r16
   844a4:	1011883a 	mov	r8,r2
   844a8:	ac6b883a 	add	r21,r21,r17
   844ac:	a804943a 	slli	r2,r21,16
   844b0:	b009883a 	mov	r4,r22
   844b4:	980b883a 	mov	r5,r19
   844b8:	10c7883a 	add	r3,r2,r3
   844bc:	a812d43a 	srli	r9,r21,16
   844c0:	180d883a 	mov	r6,r3
   844c4:	ac00022e 	bgeu	r21,r16,844d0 <__muldi3+0xc8>
   844c8:	00800074 	movhi	r2,1
   844cc:	4091883a 	add	r8,r8,r2
   844d0:	4267883a 	add	r19,r8,r9
   844d4:	302d883a 	mov	r22,r6
   844d8:	00843d00 	call	843d0 <__mulsi3>
   844dc:	d9400317 	ldw	r5,12(sp)
   844e0:	d9000017 	ldw	r4,0(sp)
   844e4:	1023883a 	mov	r17,r2
   844e8:	00843d00 	call	843d0 <__mulsi3>
   844ec:	14cb883a 	add	r5,r2,r19
   844f0:	894b883a 	add	r5,r17,r5
   844f4:	b005883a 	mov	r2,r22
   844f8:	2807883a 	mov	r3,r5
   844fc:	dfc00d17 	ldw	ra,52(sp)
   84500:	df000c17 	ldw	fp,48(sp)
   84504:	ddc00b17 	ldw	r23,44(sp)
   84508:	dd800a17 	ldw	r22,40(sp)
   8450c:	dd400917 	ldw	r21,36(sp)
   84510:	dd000817 	ldw	r20,32(sp)
   84514:	dcc00717 	ldw	r19,28(sp)
   84518:	dc800617 	ldw	r18,24(sp)
   8451c:	dc400517 	ldw	r17,20(sp)
   84520:	dc000417 	ldw	r16,16(sp)
   84524:	dec00e04 	addi	sp,sp,56
   84528:	f800283a 	ret

0008452c <__clzsi2>:
   8452c:	00bfffd4 	movui	r2,65535
   84530:	11000e36 	bltu	r2,r4,8456c <__clzsi2+0x40>
   84534:	00803fc4 	movi	r2,255
   84538:	01400204 	movi	r5,8
   8453c:	0007883a 	mov	r3,zero
   84540:	11001036 	bltu	r2,r4,84584 <__clzsi2+0x58>
   84544:	000b883a 	mov	r5,zero
   84548:	20c6d83a 	srl	r3,r4,r3
   8454c:	00800274 	movhi	r2,9
   84550:	108ac804 	addi	r2,r2,11040
   84554:	1887883a 	add	r3,r3,r2
   84558:	18800003 	ldbu	r2,0(r3)
   8455c:	00c00804 	movi	r3,32
   84560:	2885883a 	add	r2,r5,r2
   84564:	1885c83a 	sub	r2,r3,r2
   84568:	f800283a 	ret
   8456c:	01400404 	movi	r5,16
   84570:	00804034 	movhi	r2,256
   84574:	10bfffc4 	addi	r2,r2,-1
   84578:	2807883a 	mov	r3,r5
   8457c:	113ff22e 	bgeu	r2,r4,84548 <__clzsi2+0x1c>
   84580:	01400604 	movi	r5,24
   84584:	2807883a 	mov	r3,r5
   84588:	20c6d83a 	srl	r3,r4,r3
   8458c:	00800274 	movhi	r2,9
   84590:	108ac804 	addi	r2,r2,11040
   84594:	1887883a 	add	r3,r3,r2
   84598:	18800003 	ldbu	r2,0(r3)
   8459c:	00c00804 	movi	r3,32
   845a0:	2885883a 	add	r2,r5,r2
   845a4:	1885c83a 	sub	r2,r3,r2
   845a8:	f800283a 	ret

000845ac <__pack_d>:
   845ac:	20c00017 	ldw	r3,0(r4)
   845b0:	defffd04 	addi	sp,sp,-12
   845b4:	dc000015 	stw	r16,0(sp)
   845b8:	dc800215 	stw	r18,8(sp)
   845bc:	dc400115 	stw	r17,4(sp)
   845c0:	00800044 	movi	r2,1
   845c4:	22000317 	ldw	r8,12(r4)
   845c8:	001f883a 	mov	r15,zero
   845cc:	22400417 	ldw	r9,16(r4)
   845d0:	24000117 	ldw	r16,4(r4)
   845d4:	10c0552e 	bgeu	r2,r3,8472c <__pack_d+0x180>
   845d8:	00800104 	movi	r2,4
   845dc:	18804f26 	beq	r3,r2,8471c <__pack_d+0x170>
   845e0:	00800084 	movi	r2,2
   845e4:	18800226 	beq	r3,r2,845f0 <__pack_d+0x44>
   845e8:	4244b03a 	or	r2,r8,r9
   845ec:	10001a1e 	bne	r2,zero,84658 <__pack_d+0xac>
   845f0:	000d883a 	mov	r6,zero
   845f4:	000f883a 	mov	r7,zero
   845f8:	0011883a 	mov	r8,zero
   845fc:	00800434 	movhi	r2,16
   84600:	10bfffc4 	addi	r2,r2,-1
   84604:	301d883a 	mov	r14,r6
   84608:	3884703a 	and	r2,r7,r2
   8460c:	400a953a 	slli	r5,r8,20
   84610:	79bffc2c 	andhi	r6,r15,65520
   84614:	308cb03a 	or	r6,r6,r2
   84618:	00e00434 	movhi	r3,32784
   8461c:	18ffffc4 	addi	r3,r3,-1
   84620:	800497fa 	slli	r2,r16,31
   84624:	30c6703a 	and	r3,r6,r3
   84628:	1946b03a 	or	r3,r3,r5
   8462c:	01600034 	movhi	r5,32768
   84630:	297fffc4 	addi	r5,r5,-1
   84634:	194a703a 	and	r5,r3,r5
   84638:	288ab03a 	or	r5,r5,r2
   8463c:	2807883a 	mov	r3,r5
   84640:	7005883a 	mov	r2,r14
   84644:	dc800217 	ldw	r18,8(sp)
   84648:	dc400117 	ldw	r17,4(sp)
   8464c:	dc000017 	ldw	r16,0(sp)
   84650:	dec00304 	addi	sp,sp,12
   84654:	f800283a 	ret
   84658:	21000217 	ldw	r4,8(r4)
   8465c:	00bf0084 	movi	r2,-1022
   84660:	20803f16 	blt	r4,r2,84760 <__pack_d+0x1b4>
   84664:	0080ffc4 	movi	r2,1023
   84668:	11002c16 	blt	r2,r4,8471c <__pack_d+0x170>
   8466c:	00803fc4 	movi	r2,255
   84670:	408c703a 	and	r6,r8,r2
   84674:	00802004 	movi	r2,128
   84678:	0007883a 	mov	r3,zero
   8467c:	000f883a 	mov	r7,zero
   84680:	2280ffc4 	addi	r10,r4,1023
   84684:	30801e26 	beq	r6,r2,84700 <__pack_d+0x154>
   84688:	00801fc4 	movi	r2,127
   8468c:	4089883a 	add	r4,r8,r2
   84690:	220d803a 	cmpltu	r6,r4,r8
   84694:	324d883a 	add	r6,r6,r9
   84698:	2011883a 	mov	r8,r4
   8469c:	3013883a 	mov	r9,r6
   846a0:	00880034 	movhi	r2,8192
   846a4:	10bfffc4 	addi	r2,r2,-1
   846a8:	12400d36 	bltu	r2,r9,846e0 <__pack_d+0x134>
   846ac:	4804963a 	slli	r2,r9,24
   846b0:	400cd23a 	srli	r6,r8,8
   846b4:	480ed23a 	srli	r7,r9,8
   846b8:	013fffc4 	movi	r4,-1
   846bc:	118cb03a 	or	r6,r2,r6
   846c0:	01400434 	movhi	r5,16
   846c4:	297fffc4 	addi	r5,r5,-1
   846c8:	3104703a 	and	r2,r6,r4
   846cc:	3946703a 	and	r3,r7,r5
   846d0:	5201ffcc 	andi	r8,r10,2047
   846d4:	100d883a 	mov	r6,r2
   846d8:	180f883a 	mov	r7,r3
   846dc:	003fc706 	br	845fc <__pack_d+0x50>
   846e0:	480897fa 	slli	r4,r9,31
   846e4:	4004d07a 	srli	r2,r8,1
   846e8:	4806d07a 	srli	r3,r9,1
   846ec:	52800044 	addi	r10,r10,1
   846f0:	2084b03a 	or	r2,r4,r2
   846f4:	1011883a 	mov	r8,r2
   846f8:	1813883a 	mov	r9,r3
   846fc:	003feb06 	br	846ac <__pack_d+0x100>
   84700:	383fe11e 	bne	r7,zero,84688 <__pack_d+0xdc>
   84704:	01004004 	movi	r4,256
   84708:	4104703a 	and	r2,r8,r4
   8470c:	10c4b03a 	or	r2,r2,r3
   84710:	103fe326 	beq	r2,zero,846a0 <__pack_d+0xf4>
   84714:	3005883a 	mov	r2,r6
   84718:	003fdc06 	br	8468c <__pack_d+0xe0>
   8471c:	000d883a 	mov	r6,zero
   84720:	000f883a 	mov	r7,zero
   84724:	0201ffc4 	movi	r8,2047
   84728:	003fb406 	br	845fc <__pack_d+0x50>
   8472c:	0005883a 	mov	r2,zero
   84730:	00c00234 	movhi	r3,8
   84734:	408cb03a 	or	r6,r8,r2
   84738:	48ceb03a 	or	r7,r9,r3
   8473c:	013fffc4 	movi	r4,-1
   84740:	01400434 	movhi	r5,16
   84744:	297fffc4 	addi	r5,r5,-1
   84748:	3104703a 	and	r2,r6,r4
   8474c:	3946703a 	and	r3,r7,r5
   84750:	100d883a 	mov	r6,r2
   84754:	180f883a 	mov	r7,r3
   84758:	0201ffc4 	movi	r8,2047
   8475c:	003fa706 	br	845fc <__pack_d+0x50>
   84760:	1109c83a 	sub	r4,r2,r4
   84764:	00800e04 	movi	r2,56
   84768:	11004316 	blt	r2,r4,84878 <__pack_d+0x2cc>
   8476c:	21fff804 	addi	r7,r4,-32
   84770:	38004516 	blt	r7,zero,84888 <__pack_d+0x2dc>
   84774:	49d8d83a 	srl	r12,r9,r7
   84778:	001b883a 	mov	r13,zero
   8477c:	0023883a 	mov	r17,zero
   84780:	01400044 	movi	r5,1
   84784:	0025883a 	mov	r18,zero
   84788:	38004716 	blt	r7,zero,848a8 <__pack_d+0x2fc>
   8478c:	29d6983a 	sll	r11,r5,r7
   84790:	0015883a 	mov	r10,zero
   84794:	00bfffc4 	movi	r2,-1
   84798:	5089883a 	add	r4,r10,r2
   8479c:	588b883a 	add	r5,r11,r2
   847a0:	228d803a 	cmpltu	r6,r4,r10
   847a4:	314b883a 	add	r5,r6,r5
   847a8:	4104703a 	and	r2,r8,r4
   847ac:	4946703a 	and	r3,r9,r5
   847b0:	10c4b03a 	or	r2,r2,r3
   847b4:	10000226 	beq	r2,zero,847c0 <__pack_d+0x214>
   847b8:	04400044 	movi	r17,1
   847bc:	0025883a 	mov	r18,zero
   847c0:	00803fc4 	movi	r2,255
   847c4:	644eb03a 	or	r7,r12,r17
   847c8:	3892703a 	and	r9,r7,r2
   847cc:	00802004 	movi	r2,128
   847d0:	6c90b03a 	or	r8,r13,r18
   847d4:	0015883a 	mov	r10,zero
   847d8:	48801626 	beq	r9,r2,84834 <__pack_d+0x288>
   847dc:	01001fc4 	movi	r4,127
   847e0:	3905883a 	add	r2,r7,r4
   847e4:	11cd803a 	cmpltu	r6,r2,r7
   847e8:	320d883a 	add	r6,r6,r8
   847ec:	100f883a 	mov	r7,r2
   847f0:	00840034 	movhi	r2,4096
   847f4:	10bfffc4 	addi	r2,r2,-1
   847f8:	3011883a 	mov	r8,r6
   847fc:	0007883a 	mov	r3,zero
   84800:	11801b36 	bltu	r2,r6,84870 <__pack_d+0x2c4>
   84804:	4004963a 	slli	r2,r8,24
   84808:	3808d23a 	srli	r4,r7,8
   8480c:	400ad23a 	srli	r5,r8,8
   84810:	1813883a 	mov	r9,r3
   84814:	1108b03a 	or	r4,r2,r4
   84818:	00bfffc4 	movi	r2,-1
   8481c:	00c00434 	movhi	r3,16
   84820:	18ffffc4 	addi	r3,r3,-1
   84824:	208c703a 	and	r6,r4,r2
   84828:	28ce703a 	and	r7,r5,r3
   8482c:	4a01ffcc 	andi	r8,r9,2047
   84830:	003f7206 	br	845fc <__pack_d+0x50>
   84834:	503fe91e 	bne	r10,zero,847dc <__pack_d+0x230>
   84838:	01004004 	movi	r4,256
   8483c:	3904703a 	and	r2,r7,r4
   84840:	0007883a 	mov	r3,zero
   84844:	10c4b03a 	or	r2,r2,r3
   84848:	10000626 	beq	r2,zero,84864 <__pack_d+0x2b8>
   8484c:	3a45883a 	add	r2,r7,r9
   84850:	11cd803a 	cmpltu	r6,r2,r7
   84854:	320d883a 	add	r6,r6,r8
   84858:	100f883a 	mov	r7,r2
   8485c:	3011883a 	mov	r8,r6
   84860:	0007883a 	mov	r3,zero
   84864:	00840034 	movhi	r2,4096
   84868:	10bfffc4 	addi	r2,r2,-1
   8486c:	123fe52e 	bgeu	r2,r8,84804 <__pack_d+0x258>
   84870:	00c00044 	movi	r3,1
   84874:	003fe306 	br	84804 <__pack_d+0x258>
   84878:	0009883a 	mov	r4,zero
   8487c:	0013883a 	mov	r9,zero
   84880:	000b883a 	mov	r5,zero
   84884:	003fe406 	br	84818 <__pack_d+0x26c>
   84888:	4a47883a 	add	r3,r9,r9
   8488c:	008007c4 	movi	r2,31
   84890:	1105c83a 	sub	r2,r2,r4
   84894:	1886983a 	sll	r3,r3,r2
   84898:	4118d83a 	srl	r12,r8,r4
   8489c:	491ad83a 	srl	r13,r9,r4
   848a0:	1b18b03a 	or	r12,r3,r12
   848a4:	003fb506 	br	8477c <__pack_d+0x1d0>
   848a8:	2806d07a 	srli	r3,r5,1
   848ac:	008007c4 	movi	r2,31
   848b0:	1105c83a 	sub	r2,r2,r4
   848b4:	1896d83a 	srl	r11,r3,r2
   848b8:	2914983a 	sll	r10,r5,r4
   848bc:	003fb506 	br	84794 <__pack_d+0x1e8>

000848c0 <__unpack_d>:
   848c0:	20c00117 	ldw	r3,4(r4)
   848c4:	22400017 	ldw	r9,0(r4)
   848c8:	00800434 	movhi	r2,16
   848cc:	10bfffc4 	addi	r2,r2,-1
   848d0:	1808d53a 	srli	r4,r3,20
   848d4:	180cd7fa 	srli	r6,r3,31
   848d8:	1894703a 	and	r10,r3,r2
   848dc:	2201ffcc 	andi	r8,r4,2047
   848e0:	281b883a 	mov	r13,r5
   848e4:	4817883a 	mov	r11,r9
   848e8:	29800115 	stw	r6,4(r5)
   848ec:	5019883a 	mov	r12,r10
   848f0:	40001e1e 	bne	r8,zero,8496c <__unpack_d+0xac>
   848f4:	4a84b03a 	or	r2,r9,r10
   848f8:	10001926 	beq	r2,zero,84960 <__unpack_d+0xa0>
   848fc:	4804d63a 	srli	r2,r9,24
   84900:	500c923a 	slli	r6,r10,8
   84904:	013f0084 	movi	r4,-1022
   84908:	00c40034 	movhi	r3,4096
   8490c:	18ffffc4 	addi	r3,r3,-1
   84910:	118cb03a 	or	r6,r2,r6
   84914:	008000c4 	movi	r2,3
   84918:	480a923a 	slli	r5,r9,8
   8491c:	68800015 	stw	r2,0(r13)
   84920:	69000215 	stw	r4,8(r13)
   84924:	19800b36 	bltu	r3,r6,84954 <__unpack_d+0x94>
   84928:	200f883a 	mov	r7,r4
   8492c:	1811883a 	mov	r8,r3
   84930:	2945883a 	add	r2,r5,r5
   84934:	1149803a 	cmpltu	r4,r2,r5
   84938:	3187883a 	add	r3,r6,r6
   8493c:	20c9883a 	add	r4,r4,r3
   84940:	100b883a 	mov	r5,r2
   84944:	200d883a 	mov	r6,r4
   84948:	39ffffc4 	addi	r7,r7,-1
   8494c:	413ff82e 	bgeu	r8,r4,84930 <__unpack_d+0x70>
   84950:	69c00215 	stw	r7,8(r13)
   84954:	69800415 	stw	r6,16(r13)
   84958:	69400315 	stw	r5,12(r13)
   8495c:	f800283a 	ret
   84960:	00800084 	movi	r2,2
   84964:	28800015 	stw	r2,0(r5)
   84968:	f800283a 	ret
   8496c:	0081ffc4 	movi	r2,2047
   84970:	40800f26 	beq	r8,r2,849b0 <__unpack_d+0xf0>
   84974:	480cd63a 	srli	r6,r9,24
   84978:	5006923a 	slli	r3,r10,8
   8497c:	4804923a 	slli	r2,r9,8
   84980:	0009883a 	mov	r4,zero
   84984:	30c6b03a 	or	r3,r6,r3
   84988:	01440034 	movhi	r5,4096
   8498c:	110cb03a 	or	r6,r2,r4
   84990:	423f0044 	addi	r8,r8,-1023
   84994:	194eb03a 	or	r7,r3,r5
   84998:	008000c4 	movi	r2,3
   8499c:	69c00415 	stw	r7,16(r13)
   849a0:	6a000215 	stw	r8,8(r13)
   849a4:	68800015 	stw	r2,0(r13)
   849a8:	69800315 	stw	r6,12(r13)
   849ac:	f800283a 	ret
   849b0:	4a84b03a 	or	r2,r9,r10
   849b4:	1000031e 	bne	r2,zero,849c4 <__unpack_d+0x104>
   849b8:	00800104 	movi	r2,4
   849bc:	28800015 	stw	r2,0(r5)
   849c0:	f800283a 	ret
   849c4:	0009883a 	mov	r4,zero
   849c8:	01400234 	movhi	r5,8
   849cc:	4904703a 	and	r2,r9,r4
   849d0:	5146703a 	and	r3,r10,r5
   849d4:	10c4b03a 	or	r2,r2,r3
   849d8:	10000526 	beq	r2,zero,849f0 <__unpack_d+0x130>
   849dc:	00800044 	movi	r2,1
   849e0:	68800015 	stw	r2,0(r13)
   849e4:	6b000415 	stw	r12,16(r13)
   849e8:	6ac00315 	stw	r11,12(r13)
   849ec:	f800283a 	ret
   849f0:	68000015 	stw	zero,0(r13)
   849f4:	003ffb06 	br	849e4 <__unpack_d+0x124>

000849f8 <__fpcmp_parts_d>:
   849f8:	21800017 	ldw	r6,0(r4)
   849fc:	00c00044 	movi	r3,1
   84a00:	19800a2e 	bgeu	r3,r6,84a2c <__fpcmp_parts_d+0x34>
   84a04:	28800017 	ldw	r2,0(r5)
   84a08:	1880082e 	bgeu	r3,r2,84a2c <__fpcmp_parts_d+0x34>
   84a0c:	00c00104 	movi	r3,4
   84a10:	30c02626 	beq	r6,r3,84aac <__fpcmp_parts_d+0xb4>
   84a14:	10c02226 	beq	r2,r3,84aa0 <__fpcmp_parts_d+0xa8>
   84a18:	00c00084 	movi	r3,2
   84a1c:	30c00526 	beq	r6,r3,84a34 <__fpcmp_parts_d+0x3c>
   84a20:	10c0071e 	bne	r2,r3,84a40 <__fpcmp_parts_d+0x48>
   84a24:	20800117 	ldw	r2,4(r4)
   84a28:	1000091e 	bne	r2,zero,84a50 <__fpcmp_parts_d+0x58>
   84a2c:	00800044 	movi	r2,1
   84a30:	f800283a 	ret
   84a34:	10c01a1e 	bne	r2,r3,84aa0 <__fpcmp_parts_d+0xa8>
   84a38:	0005883a 	mov	r2,zero
   84a3c:	f800283a 	ret
   84a40:	22000117 	ldw	r8,4(r4)
   84a44:	28800117 	ldw	r2,4(r5)
   84a48:	40800326 	beq	r8,r2,84a58 <__fpcmp_parts_d+0x60>
   84a4c:	403ff726 	beq	r8,zero,84a2c <__fpcmp_parts_d+0x34>
   84a50:	00bfffc4 	movi	r2,-1
   84a54:	f800283a 	ret
   84a58:	20c00217 	ldw	r3,8(r4)
   84a5c:	28800217 	ldw	r2,8(r5)
   84a60:	10fffa16 	blt	r2,r3,84a4c <__fpcmp_parts_d+0x54>
   84a64:	18800916 	blt	r3,r2,84a8c <__fpcmp_parts_d+0x94>
   84a68:	21c00417 	ldw	r7,16(r4)
   84a6c:	28c00417 	ldw	r3,16(r5)
   84a70:	21800317 	ldw	r6,12(r4)
   84a74:	28800317 	ldw	r2,12(r5)
   84a78:	19fff436 	bltu	r3,r7,84a4c <__fpcmp_parts_d+0x54>
   84a7c:	38c00526 	beq	r7,r3,84a94 <__fpcmp_parts_d+0x9c>
   84a80:	38c00236 	bltu	r7,r3,84a8c <__fpcmp_parts_d+0x94>
   84a84:	19ffec1e 	bne	r3,r7,84a38 <__fpcmp_parts_d+0x40>
   84a88:	30bfeb2e 	bgeu	r6,r2,84a38 <__fpcmp_parts_d+0x40>
   84a8c:	403fe71e 	bne	r8,zero,84a2c <__fpcmp_parts_d+0x34>
   84a90:	003fef06 	br	84a50 <__fpcmp_parts_d+0x58>
   84a94:	11bffa2e 	bgeu	r2,r6,84a80 <__fpcmp_parts_d+0x88>
   84a98:	403fe426 	beq	r8,zero,84a2c <__fpcmp_parts_d+0x34>
   84a9c:	003fec06 	br	84a50 <__fpcmp_parts_d+0x58>
   84aa0:	28800117 	ldw	r2,4(r5)
   84aa4:	103fe11e 	bne	r2,zero,84a2c <__fpcmp_parts_d+0x34>
   84aa8:	003fe906 	br	84a50 <__fpcmp_parts_d+0x58>
   84aac:	11bfdd1e 	bne	r2,r6,84a24 <__fpcmp_parts_d+0x2c>
   84ab0:	28c00117 	ldw	r3,4(r5)
   84ab4:	20800117 	ldw	r2,4(r4)
   84ab8:	1885c83a 	sub	r2,r3,r2
   84abc:	f800283a 	ret

00084ac0 <_fclose_r>:
   84ac0:	defffc04 	addi	sp,sp,-16
   84ac4:	dc400115 	stw	r17,4(sp)
   84ac8:	dc000015 	stw	r16,0(sp)
   84acc:	dfc00315 	stw	ra,12(sp)
   84ad0:	dc800215 	stw	r18,8(sp)
   84ad4:	2821883a 	mov	r16,r5
   84ad8:	2023883a 	mov	r17,r4
   84adc:	28002926 	beq	r5,zero,84b84 <_fclose_r+0xc4>
   84ae0:	0084e6c0 	call	84e6c <__sfp_lock_acquire>
   84ae4:	88000226 	beq	r17,zero,84af0 <_fclose_r+0x30>
   84ae8:	88800e17 	ldw	r2,56(r17)
   84aec:	10002d26 	beq	r2,zero,84ba4 <_fclose_r+0xe4>
   84af0:	8080030f 	ldh	r2,12(r16)
   84af4:	10002226 	beq	r2,zero,84b80 <_fclose_r+0xc0>
   84af8:	8809883a 	mov	r4,r17
   84afc:	800b883a 	mov	r5,r16
   84b00:	0084be40 	call	84be4 <_fflush_r>
   84b04:	1025883a 	mov	r18,r2
   84b08:	80800b17 	ldw	r2,44(r16)
   84b0c:	10000426 	beq	r2,zero,84b20 <_fclose_r+0x60>
   84b10:	81400717 	ldw	r5,28(r16)
   84b14:	8809883a 	mov	r4,r17
   84b18:	103ee83a 	callr	r2
   84b1c:	10002a16 	blt	r2,zero,84bc8 <_fclose_r+0x108>
   84b20:	8080030b 	ldhu	r2,12(r16)
   84b24:	1080200c 	andi	r2,r2,128
   84b28:	1000231e 	bne	r2,zero,84bb8 <_fclose_r+0xf8>
   84b2c:	81400c17 	ldw	r5,48(r16)
   84b30:	28000526 	beq	r5,zero,84b48 <_fclose_r+0x88>
   84b34:	80801004 	addi	r2,r16,64
   84b38:	28800226 	beq	r5,r2,84b44 <_fclose_r+0x84>
   84b3c:	8809883a 	mov	r4,r17
   84b40:	00853a40 	call	853a4 <_free_r>
   84b44:	80000c15 	stw	zero,48(r16)
   84b48:	81401117 	ldw	r5,68(r16)
   84b4c:	28000326 	beq	r5,zero,84b5c <_fclose_r+0x9c>
   84b50:	8809883a 	mov	r4,r17
   84b54:	00853a40 	call	853a4 <_free_r>
   84b58:	80001115 	stw	zero,68(r16)
   84b5c:	8000030d 	sth	zero,12(r16)
   84b60:	0084e700 	call	84e70 <__sfp_lock_release>
   84b64:	9005883a 	mov	r2,r18
   84b68:	dfc00317 	ldw	ra,12(sp)
   84b6c:	dc800217 	ldw	r18,8(sp)
   84b70:	dc400117 	ldw	r17,4(sp)
   84b74:	dc000017 	ldw	r16,0(sp)
   84b78:	dec00404 	addi	sp,sp,16
   84b7c:	f800283a 	ret
   84b80:	0084e700 	call	84e70 <__sfp_lock_release>
   84b84:	0025883a 	mov	r18,zero
   84b88:	9005883a 	mov	r2,r18
   84b8c:	dfc00317 	ldw	ra,12(sp)
   84b90:	dc800217 	ldw	r18,8(sp)
   84b94:	dc400117 	ldw	r17,4(sp)
   84b98:	dc000017 	ldw	r16,0(sp)
   84b9c:	dec00404 	addi	sp,sp,16
   84ba0:	f800283a 	ret
   84ba4:	8809883a 	mov	r4,r17
   84ba8:	0084e7c0 	call	84e7c <__sinit>
   84bac:	8080030f 	ldh	r2,12(r16)
   84bb0:	103fd11e 	bne	r2,zero,84af8 <_fclose_r+0x38>
   84bb4:	003ff206 	br	84b80 <_fclose_r+0xc0>
   84bb8:	81400417 	ldw	r5,16(r16)
   84bbc:	8809883a 	mov	r4,r17
   84bc0:	00853a40 	call	853a4 <_free_r>
   84bc4:	003fd906 	br	84b2c <_fclose_r+0x6c>
   84bc8:	04bfffc4 	movi	r18,-1
   84bcc:	003fd406 	br	84b20 <_fclose_r+0x60>

00084bd0 <fclose>:
   84bd0:	00800274 	movhi	r2,9
   84bd4:	10932d04 	addi	r2,r2,19636
   84bd8:	200b883a 	mov	r5,r4
   84bdc:	11000017 	ldw	r4,0(r2)
   84be0:	0084ac01 	jmpi	84ac0 <_fclose_r>

00084be4 <_fflush_r>:
   84be4:	defffb04 	addi	sp,sp,-20
   84be8:	dcc00315 	stw	r19,12(sp)
   84bec:	dc800215 	stw	r18,8(sp)
   84bf0:	dfc00415 	stw	ra,16(sp)
   84bf4:	dc400115 	stw	r17,4(sp)
   84bf8:	dc000015 	stw	r16,0(sp)
   84bfc:	2027883a 	mov	r19,r4
   84c00:	2825883a 	mov	r18,r5
   84c04:	20000226 	beq	r4,zero,84c10 <_fflush_r+0x2c>
   84c08:	20800e17 	ldw	r2,56(r4)
   84c0c:	10005626 	beq	r2,zero,84d68 <_fflush_r+0x184>
   84c10:	9100030b 	ldhu	r4,12(r18)
   84c14:	20ffffcc 	andi	r3,r4,65535
   84c18:	18e0001c 	xori	r3,r3,32768
   84c1c:	18e00004 	addi	r3,r3,-32768
   84c20:	1880020c 	andi	r2,r3,8
   84c24:	1000261e 	bne	r2,zero,84cc0 <_fflush_r+0xdc>
   84c28:	90c00117 	ldw	r3,4(r18)
   84c2c:	20820014 	ori	r2,r4,2048
   84c30:	9080030d 	sth	r2,12(r18)
   84c34:	1009883a 	mov	r4,r2
   84c38:	00c0400e 	bge	zero,r3,84d3c <_fflush_r+0x158>
   84c3c:	92000a17 	ldw	r8,40(r18)
   84c40:	40004026 	beq	r8,zero,84d44 <_fflush_r+0x160>
   84c44:	2084000c 	andi	r2,r4,4096
   84c48:	10005326 	beq	r2,zero,84d98 <_fflush_r+0x1b4>
   84c4c:	94001417 	ldw	r16,80(r18)
   84c50:	9080030b 	ldhu	r2,12(r18)
   84c54:	1080010c 	andi	r2,r2,4
   84c58:	1000481e 	bne	r2,zero,84d7c <_fflush_r+0x198>
   84c5c:	91400717 	ldw	r5,28(r18)
   84c60:	9809883a 	mov	r4,r19
   84c64:	800d883a 	mov	r6,r16
   84c68:	000f883a 	mov	r7,zero
   84c6c:	403ee83a 	callr	r8
   84c70:	8080261e 	bne	r16,r2,84d0c <_fflush_r+0x128>
   84c74:	9080030b 	ldhu	r2,12(r18)
   84c78:	91000417 	ldw	r4,16(r18)
   84c7c:	90000115 	stw	zero,4(r18)
   84c80:	10bdffcc 	andi	r2,r2,63487
   84c84:	10ffffcc 	andi	r3,r2,65535
   84c88:	18c4000c 	andi	r3,r3,4096
   84c8c:	9080030d 	sth	r2,12(r18)
   84c90:	91000015 	stw	r4,0(r18)
   84c94:	18002b26 	beq	r3,zero,84d44 <_fflush_r+0x160>
   84c98:	0007883a 	mov	r3,zero
   84c9c:	1805883a 	mov	r2,r3
   84ca0:	94001415 	stw	r16,80(r18)
   84ca4:	dfc00417 	ldw	ra,16(sp)
   84ca8:	dcc00317 	ldw	r19,12(sp)
   84cac:	dc800217 	ldw	r18,8(sp)
   84cb0:	dc400117 	ldw	r17,4(sp)
   84cb4:	dc000017 	ldw	r16,0(sp)
   84cb8:	dec00504 	addi	sp,sp,20
   84cbc:	f800283a 	ret
   84cc0:	94400417 	ldw	r17,16(r18)
   84cc4:	88001f26 	beq	r17,zero,84d44 <_fflush_r+0x160>
   84cc8:	90800017 	ldw	r2,0(r18)
   84ccc:	18c000cc 	andi	r3,r3,3
   84cd0:	94400015 	stw	r17,0(r18)
   84cd4:	1461c83a 	sub	r16,r2,r17
   84cd8:	18002526 	beq	r3,zero,84d70 <_fflush_r+0x18c>
   84cdc:	0005883a 	mov	r2,zero
   84ce0:	90800215 	stw	r2,8(r18)
   84ce4:	0400170e 	bge	zero,r16,84d44 <_fflush_r+0x160>
   84ce8:	90c00917 	ldw	r3,36(r18)
   84cec:	91400717 	ldw	r5,28(r18)
   84cf0:	880d883a 	mov	r6,r17
   84cf4:	800f883a 	mov	r7,r16
   84cf8:	9809883a 	mov	r4,r19
   84cfc:	183ee83a 	callr	r3
   84d00:	88a3883a 	add	r17,r17,r2
   84d04:	80a1c83a 	sub	r16,r16,r2
   84d08:	00bff616 	blt	zero,r2,84ce4 <_fflush_r+0x100>
   84d0c:	9080030b 	ldhu	r2,12(r18)
   84d10:	00ffffc4 	movi	r3,-1
   84d14:	10801014 	ori	r2,r2,64
   84d18:	9080030d 	sth	r2,12(r18)
   84d1c:	1805883a 	mov	r2,r3
   84d20:	dfc00417 	ldw	ra,16(sp)
   84d24:	dcc00317 	ldw	r19,12(sp)
   84d28:	dc800217 	ldw	r18,8(sp)
   84d2c:	dc400117 	ldw	r17,4(sp)
   84d30:	dc000017 	ldw	r16,0(sp)
   84d34:	dec00504 	addi	sp,sp,20
   84d38:	f800283a 	ret
   84d3c:	90800f17 	ldw	r2,60(r18)
   84d40:	00bfbe16 	blt	zero,r2,84c3c <_fflush_r+0x58>
   84d44:	0007883a 	mov	r3,zero
   84d48:	1805883a 	mov	r2,r3
   84d4c:	dfc00417 	ldw	ra,16(sp)
   84d50:	dcc00317 	ldw	r19,12(sp)
   84d54:	dc800217 	ldw	r18,8(sp)
   84d58:	dc400117 	ldw	r17,4(sp)
   84d5c:	dc000017 	ldw	r16,0(sp)
   84d60:	dec00504 	addi	sp,sp,20
   84d64:	f800283a 	ret
   84d68:	0084e7c0 	call	84e7c <__sinit>
   84d6c:	003fa806 	br	84c10 <_fflush_r+0x2c>
   84d70:	90800517 	ldw	r2,20(r18)
   84d74:	90800215 	stw	r2,8(r18)
   84d78:	003fda06 	br	84ce4 <_fflush_r+0x100>
   84d7c:	90800117 	ldw	r2,4(r18)
   84d80:	90c00c17 	ldw	r3,48(r18)
   84d84:	80a1c83a 	sub	r16,r16,r2
   84d88:	183fb426 	beq	r3,zero,84c5c <_fflush_r+0x78>
   84d8c:	90800f17 	ldw	r2,60(r18)
   84d90:	80a1c83a 	sub	r16,r16,r2
   84d94:	003fb106 	br	84c5c <_fflush_r+0x78>
   84d98:	91400717 	ldw	r5,28(r18)
   84d9c:	9809883a 	mov	r4,r19
   84da0:	000d883a 	mov	r6,zero
   84da4:	01c00044 	movi	r7,1
   84da8:	403ee83a 	callr	r8
   84dac:	1021883a 	mov	r16,r2
   84db0:	00bfffc4 	movi	r2,-1
   84db4:	80800226 	beq	r16,r2,84dc0 <_fflush_r+0x1dc>
   84db8:	92000a17 	ldw	r8,40(r18)
   84dbc:	003fa406 	br	84c50 <_fflush_r+0x6c>
   84dc0:	98c00017 	ldw	r3,0(r19)
   84dc4:	00800744 	movi	r2,29
   84dc8:	18bfde26 	beq	r3,r2,84d44 <_fflush_r+0x160>
   84dcc:	9080030b 	ldhu	r2,12(r18)
   84dd0:	8007883a 	mov	r3,r16
   84dd4:	10801014 	ori	r2,r2,64
   84dd8:	9080030d 	sth	r2,12(r18)
   84ddc:	003fcf06 	br	84d1c <_fflush_r+0x138>

00084de0 <fflush>:
   84de0:	01400234 	movhi	r5,8
   84de4:	2952f904 	addi	r5,r5,19428
   84de8:	2007883a 	mov	r3,r4
   84dec:	20000526 	beq	r4,zero,84e04 <fflush+0x24>
   84df0:	00800274 	movhi	r2,9
   84df4:	10932d04 	addi	r2,r2,19636
   84df8:	11000017 	ldw	r4,0(r2)
   84dfc:	180b883a 	mov	r5,r3
   84e00:	0084be41 	jmpi	84be4 <_fflush_r>
   84e04:	00800274 	movhi	r2,9
   84e08:	10932e04 	addi	r2,r2,19640
   84e0c:	11000017 	ldw	r4,0(r2)
   84e10:	0085b8c1 	jmpi	85b8c <_fwalk_reent>

00084e14 <std>:
   84e14:	00800234 	movhi	r2,8
   84e18:	109ad604 	addi	r2,r2,27480
   84e1c:	20800b15 	stw	r2,44(r4)
   84e20:	00800234 	movhi	r2,8
   84e24:	109b1104 	addi	r2,r2,27716
   84e28:	20800815 	stw	r2,32(r4)
   84e2c:	00c00234 	movhi	r3,8
   84e30:	18daf204 	addi	r3,r3,27592
   84e34:	00800234 	movhi	r2,8
   84e38:	109ad804 	addi	r2,r2,27488
   84e3c:	2140030d 	sth	r5,12(r4)
   84e40:	2180038d 	sth	r6,14(r4)
   84e44:	20c00915 	stw	r3,36(r4)
   84e48:	20800a15 	stw	r2,40(r4)
   84e4c:	20000015 	stw	zero,0(r4)
   84e50:	20000115 	stw	zero,4(r4)
   84e54:	20000215 	stw	zero,8(r4)
   84e58:	20000415 	stw	zero,16(r4)
   84e5c:	20000515 	stw	zero,20(r4)
   84e60:	20000615 	stw	zero,24(r4)
   84e64:	21000715 	stw	r4,28(r4)
   84e68:	f800283a 	ret

00084e6c <__sfp_lock_acquire>:
   84e6c:	f800283a 	ret

00084e70 <__sfp_lock_release>:
   84e70:	f800283a 	ret

00084e74 <__sinit_lock_acquire>:
   84e74:	f800283a 	ret

00084e78 <__sinit_lock_release>:
   84e78:	f800283a 	ret

00084e7c <__sinit>:
   84e7c:	20800e17 	ldw	r2,56(r4)
   84e80:	defffd04 	addi	sp,sp,-12
   84e84:	dc400115 	stw	r17,4(sp)
   84e88:	dc000015 	stw	r16,0(sp)
   84e8c:	dfc00215 	stw	ra,8(sp)
   84e90:	04400044 	movi	r17,1
   84e94:	01400104 	movi	r5,4
   84e98:	000d883a 	mov	r6,zero
   84e9c:	2021883a 	mov	r16,r4
   84ea0:	2200bb04 	addi	r8,r4,748
   84ea4:	200f883a 	mov	r7,r4
   84ea8:	10000526 	beq	r2,zero,84ec0 <__sinit+0x44>
   84eac:	dfc00217 	ldw	ra,8(sp)
   84eb0:	dc400117 	ldw	r17,4(sp)
   84eb4:	dc000017 	ldw	r16,0(sp)
   84eb8:	dec00304 	addi	sp,sp,12
   84ebc:	f800283a 	ret
   84ec0:	21000117 	ldw	r4,4(r4)
   84ec4:	00800234 	movhi	r2,8
   84ec8:	1093d804 	addi	r2,r2,20320
   84ecc:	00c000c4 	movi	r3,3
   84ed0:	80800f15 	stw	r2,60(r16)
   84ed4:	80c0b915 	stw	r3,740(r16)
   84ed8:	8200ba15 	stw	r8,744(r16)
   84edc:	84400e15 	stw	r17,56(r16)
   84ee0:	8000b815 	stw	zero,736(r16)
   84ee4:	0084e140 	call	84e14 <std>
   84ee8:	81000217 	ldw	r4,8(r16)
   84eec:	880d883a 	mov	r6,r17
   84ef0:	800f883a 	mov	r7,r16
   84ef4:	01400284 	movi	r5,10
   84ef8:	0084e140 	call	84e14 <std>
   84efc:	81000317 	ldw	r4,12(r16)
   84f00:	800f883a 	mov	r7,r16
   84f04:	01400484 	movi	r5,18
   84f08:	01800084 	movi	r6,2
   84f0c:	dfc00217 	ldw	ra,8(sp)
   84f10:	dc400117 	ldw	r17,4(sp)
   84f14:	dc000017 	ldw	r16,0(sp)
   84f18:	dec00304 	addi	sp,sp,12
   84f1c:	0084e141 	jmpi	84e14 <std>

00084f20 <__fp_lock>:
   84f20:	0005883a 	mov	r2,zero
   84f24:	f800283a 	ret

00084f28 <__fp_unlock>:
   84f28:	0005883a 	mov	r2,zero
   84f2c:	f800283a 	ret

00084f30 <__fp_unlock_all>:
   84f30:	00800274 	movhi	r2,9
   84f34:	10932d04 	addi	r2,r2,19636
   84f38:	11000017 	ldw	r4,0(r2)
   84f3c:	01400234 	movhi	r5,8
   84f40:	2953ca04 	addi	r5,r5,20264
   84f44:	0085c541 	jmpi	85c54 <_fwalk>

00084f48 <__fp_lock_all>:
   84f48:	00800274 	movhi	r2,9
   84f4c:	10932d04 	addi	r2,r2,19636
   84f50:	11000017 	ldw	r4,0(r2)
   84f54:	01400234 	movhi	r5,8
   84f58:	2953c804 	addi	r5,r5,20256
   84f5c:	0085c541 	jmpi	85c54 <_fwalk>

00084f60 <_cleanup_r>:
   84f60:	01400234 	movhi	r5,8
   84f64:	2952f404 	addi	r5,r5,19408
   84f68:	0085c541 	jmpi	85c54 <_fwalk>

00084f6c <_cleanup>:
   84f6c:	00800274 	movhi	r2,9
   84f70:	10932e04 	addi	r2,r2,19640
   84f74:	11000017 	ldw	r4,0(r2)
   84f78:	0084f601 	jmpi	84f60 <_cleanup_r>

00084f7c <__sfmoreglue>:
   84f7c:	defffc04 	addi	sp,sp,-16
   84f80:	dc000015 	stw	r16,0(sp)
   84f84:	2821883a 	mov	r16,r5
   84f88:	dc400115 	stw	r17,4(sp)
   84f8c:	01401704 	movi	r5,92
   84f90:	2023883a 	mov	r17,r4
   84f94:	8009883a 	mov	r4,r16
   84f98:	dfc00315 	stw	ra,12(sp)
   84f9c:	dcc00215 	stw	r19,8(sp)
   84fa0:	00843d00 	call	843d0 <__mulsi3>
   84fa4:	11400304 	addi	r5,r2,12
   84fa8:	8809883a 	mov	r4,r17
   84fac:	1027883a 	mov	r19,r2
   84fb0:	0085f8c0 	call	85f8c <_malloc_r>
   84fb4:	10c00304 	addi	r3,r2,12
   84fb8:	1023883a 	mov	r17,r2
   84fbc:	1809883a 	mov	r4,r3
   84fc0:	980d883a 	mov	r6,r19
   84fc4:	000b883a 	mov	r5,zero
   84fc8:	10000b26 	beq	r2,zero,84ff8 <__sfmoreglue+0x7c>
   84fcc:	14000115 	stw	r16,4(r2)
   84fd0:	10c00215 	stw	r3,8(r2)
   84fd4:	10000015 	stw	zero,0(r2)
   84fd8:	00866cc0 	call	866cc <memset>
   84fdc:	8805883a 	mov	r2,r17
   84fe0:	dfc00317 	ldw	ra,12(sp)
   84fe4:	dcc00217 	ldw	r19,8(sp)
   84fe8:	dc400117 	ldw	r17,4(sp)
   84fec:	dc000017 	ldw	r16,0(sp)
   84ff0:	dec00404 	addi	sp,sp,16
   84ff4:	f800283a 	ret
   84ff8:	0023883a 	mov	r17,zero
   84ffc:	8805883a 	mov	r2,r17
   85000:	dfc00317 	ldw	ra,12(sp)
   85004:	dcc00217 	ldw	r19,8(sp)
   85008:	dc400117 	ldw	r17,4(sp)
   8500c:	dc000017 	ldw	r16,0(sp)
   85010:	dec00404 	addi	sp,sp,16
   85014:	f800283a 	ret

00085018 <__sfp>:
   85018:	defffd04 	addi	sp,sp,-12
   8501c:	00800274 	movhi	r2,9
   85020:	10932e04 	addi	r2,r2,19640
   85024:	dc000015 	stw	r16,0(sp)
   85028:	14000017 	ldw	r16,0(r2)
   8502c:	dc400115 	stw	r17,4(sp)
   85030:	dfc00215 	stw	ra,8(sp)
   85034:	80800e17 	ldw	r2,56(r16)
   85038:	2023883a 	mov	r17,r4
   8503c:	10002626 	beq	r2,zero,850d8 <__sfp+0xc0>
   85040:	8400b804 	addi	r16,r16,736
   85044:	80800117 	ldw	r2,4(r16)
   85048:	81000217 	ldw	r4,8(r16)
   8504c:	10ffffc4 	addi	r3,r2,-1
   85050:	18000916 	blt	r3,zero,85078 <__sfp+0x60>
   85054:	2080030f 	ldh	r2,12(r4)
   85058:	10000b26 	beq	r2,zero,85088 <__sfp+0x70>
   8505c:	017fffc4 	movi	r5,-1
   85060:	00000206 	br	8506c <__sfp+0x54>
   85064:	2080030f 	ldh	r2,12(r4)
   85068:	10000726 	beq	r2,zero,85088 <__sfp+0x70>
   8506c:	18ffffc4 	addi	r3,r3,-1
   85070:	21001704 	addi	r4,r4,92
   85074:	197ffb1e 	bne	r3,r5,85064 <__sfp+0x4c>
   85078:	80800017 	ldw	r2,0(r16)
   8507c:	10001926 	beq	r2,zero,850e4 <__sfp+0xcc>
   85080:	1021883a 	mov	r16,r2
   85084:	003fef06 	br	85044 <__sfp+0x2c>
   85088:	00bfffc4 	movi	r2,-1
   8508c:	00c00044 	movi	r3,1
   85090:	2080038d 	sth	r2,14(r4)
   85094:	20c0030d 	sth	r3,12(r4)
   85098:	20000015 	stw	zero,0(r4)
   8509c:	20000215 	stw	zero,8(r4)
   850a0:	20000115 	stw	zero,4(r4)
   850a4:	20000415 	stw	zero,16(r4)
   850a8:	20000515 	stw	zero,20(r4)
   850ac:	20000615 	stw	zero,24(r4)
   850b0:	20000c15 	stw	zero,48(r4)
   850b4:	20000d15 	stw	zero,52(r4)
   850b8:	20001115 	stw	zero,68(r4)
   850bc:	20001215 	stw	zero,72(r4)
   850c0:	2005883a 	mov	r2,r4
   850c4:	dfc00217 	ldw	ra,8(sp)
   850c8:	dc400117 	ldw	r17,4(sp)
   850cc:	dc000017 	ldw	r16,0(sp)
   850d0:	dec00304 	addi	sp,sp,12
   850d4:	f800283a 	ret
   850d8:	8009883a 	mov	r4,r16
   850dc:	0084e7c0 	call	84e7c <__sinit>
   850e0:	003fd706 	br	85040 <__sfp+0x28>
   850e4:	8809883a 	mov	r4,r17
   850e8:	01400104 	movi	r5,4
   850ec:	0084f7c0 	call	84f7c <__sfmoreglue>
   850f0:	80800015 	stw	r2,0(r16)
   850f4:	103fe21e 	bne	r2,zero,85080 <__sfp+0x68>
   850f8:	00800304 	movi	r2,12
   850fc:	0009883a 	mov	r4,zero
   85100:	88800015 	stw	r2,0(r17)
   85104:	003fee06 	br	850c0 <__sfp+0xa8>

00085108 <_fopen_r>:
   85108:	defffa04 	addi	sp,sp,-24
   8510c:	dcc00415 	stw	r19,16(sp)
   85110:	2827883a 	mov	r19,r5
   85114:	300b883a 	mov	r5,r6
   85118:	d80d883a 	mov	r6,sp
   8511c:	dc800315 	stw	r18,12(sp)
   85120:	dc400215 	stw	r17,8(sp)
   85124:	dc000115 	stw	r16,4(sp)
   85128:	dfc00515 	stw	ra,20(sp)
   8512c:	2021883a 	mov	r16,r4
   85130:	008a6740 	call	8a674 <__sflags>
   85134:	1025883a 	mov	r18,r2
   85138:	8009883a 	mov	r4,r16
   8513c:	0023883a 	mov	r17,zero
   85140:	1000081e 	bne	r2,zero,85164 <_fopen_r+0x5c>
   85144:	8805883a 	mov	r2,r17
   85148:	dfc00517 	ldw	ra,20(sp)
   8514c:	dcc00417 	ldw	r19,16(sp)
   85150:	dc800317 	ldw	r18,12(sp)
   85154:	dc400217 	ldw	r17,8(sp)
   85158:	dc000117 	ldw	r16,4(sp)
   8515c:	dec00604 	addi	sp,sp,24
   85160:	f800283a 	ret
   85164:	00850180 	call	85018 <__sfp>
   85168:	1023883a 	mov	r17,r2
   8516c:	980b883a 	mov	r5,r19
   85170:	8009883a 	mov	r4,r16
   85174:	01c06d84 	movi	r7,438
   85178:	103ff226 	beq	r2,zero,85144 <_fopen_r+0x3c>
   8517c:	d9800017 	ldw	r6,0(sp)
   85180:	00867640 	call	86764 <_open_r>
   85184:	10001816 	blt	r2,zero,851e8 <_fopen_r+0xe0>
   85188:	00c00234 	movhi	r3,8
   8518c:	18daf204 	addi	r3,r3,27592
   85190:	923fffcc 	andi	r8,r18,65535
   85194:	8880038d 	sth	r2,14(r17)
   85198:	00800234 	movhi	r2,8
   8519c:	109b1104 	addi	r2,r2,27716
   851a0:	88800815 	stw	r2,32(r17)
   851a4:	88c00915 	stw	r3,36(r17)
   851a8:	00800234 	movhi	r2,8
   851ac:	109ad804 	addi	r2,r2,27488
   851b0:	00c00234 	movhi	r3,8
   851b4:	18dad604 	addi	r3,r3,27480
   851b8:	4200400c 	andi	r8,r8,256
   851bc:	8c80030d 	sth	r18,12(r17)
   851c0:	8009883a 	mov	r4,r16
   851c4:	880b883a 	mov	r5,r17
   851c8:	000d883a 	mov	r6,zero
   851cc:	01c00084 	movi	r7,2
   851d0:	88800a15 	stw	r2,40(r17)
   851d4:	88c00b15 	stw	r3,44(r17)
   851d8:	8c400715 	stw	r17,28(r17)
   851dc:	403fd926 	beq	r8,zero,85144 <_fopen_r+0x3c>
   851e0:	00856b80 	call	856b8 <_fseek_r>
   851e4:	003fd706 	br	85144 <_fopen_r+0x3c>
   851e8:	0084e6c0 	call	84e6c <__sfp_lock_acquire>
   851ec:	8800030d 	sth	zero,12(r17)
   851f0:	0084e700 	call	84e70 <__sfp_lock_release>
   851f4:	0023883a 	mov	r17,zero
   851f8:	003fd206 	br	85144 <_fopen_r+0x3c>

000851fc <fopen>:
   851fc:	01800274 	movhi	r6,9
   85200:	31932d04 	addi	r6,r6,19636
   85204:	2007883a 	mov	r3,r4
   85208:	31000017 	ldw	r4,0(r6)
   8520c:	280d883a 	mov	r6,r5
   85210:	180b883a 	mov	r5,r3
   85214:	00851081 	jmpi	85108 <_fopen_r>

00085218 <fprintf>:
   85218:	defffc04 	addi	sp,sp,-16
   8521c:	dfc00115 	stw	ra,4(sp)
   85220:	d9800215 	stw	r6,8(sp)
   85224:	d9c00315 	stw	r7,12(sp)
   85228:	d8800204 	addi	r2,sp,8
   8522c:	100d883a 	mov	r6,r2
   85230:	d8800015 	stw	r2,0(sp)
   85234:	0088c340 	call	88c34 <__vfprintf_internal>
   85238:	dfc00117 	ldw	ra,4(sp)
   8523c:	dec00404 	addi	sp,sp,16
   85240:	f800283a 	ret

00085244 <_fprintf_r>:
   85244:	defffd04 	addi	sp,sp,-12
   85248:	2807883a 	mov	r3,r5
   8524c:	dfc00115 	stw	ra,4(sp)
   85250:	d9c00215 	stw	r7,8(sp)
   85254:	d8800204 	addi	r2,sp,8
   85258:	300b883a 	mov	r5,r6
   8525c:	1809883a 	mov	r4,r3
   85260:	100d883a 	mov	r6,r2
   85264:	d8800015 	stw	r2,0(sp)
   85268:	0088c340 	call	88c34 <__vfprintf_internal>
   8526c:	dfc00117 	ldw	ra,4(sp)
   85270:	dec00304 	addi	sp,sp,12
   85274:	f800283a 	ret

00085278 <_malloc_trim_r>:
   85278:	defffb04 	addi	sp,sp,-20
   8527c:	dcc00315 	stw	r19,12(sp)
   85280:	04c00274 	movhi	r19,9
   85284:	9ccd4404 	addi	r19,r19,13584
   85288:	dc800215 	stw	r18,8(sp)
   8528c:	dc400115 	stw	r17,4(sp)
   85290:	dc000015 	stw	r16,0(sp)
   85294:	2823883a 	mov	r17,r5
   85298:	2025883a 	mov	r18,r4
   8529c:	dfc00415 	stw	ra,16(sp)
   852a0:	008deb00 	call	8deb0 <__malloc_lock>
   852a4:	98800217 	ldw	r2,8(r19)
   852a8:	9009883a 	mov	r4,r18
   852ac:	000b883a 	mov	r5,zero
   852b0:	10c00117 	ldw	r3,4(r2)
   852b4:	00bfff04 	movi	r2,-4
   852b8:	18a0703a 	and	r16,r3,r2
   852bc:	8463c83a 	sub	r17,r16,r17
   852c0:	8c43fbc4 	addi	r17,r17,4079
   852c4:	8822d33a 	srli	r17,r17,12
   852c8:	0083ffc4 	movi	r2,4095
   852cc:	8c7fffc4 	addi	r17,r17,-1
   852d0:	8822933a 	slli	r17,r17,12
   852d4:	1440060e 	bge	r2,r17,852f0 <_malloc_trim_r+0x78>
   852d8:	0086ae80 	call	86ae8 <_sbrk_r>
   852dc:	98c00217 	ldw	r3,8(r19)
   852e0:	9009883a 	mov	r4,r18
   852e4:	044bc83a 	sub	r5,zero,r17
   852e8:	80c7883a 	add	r3,r16,r3
   852ec:	10c00926 	beq	r2,r3,85314 <_malloc_trim_r+0x9c>
   852f0:	008ded00 	call	8ded0 <__malloc_unlock>
   852f4:	0005883a 	mov	r2,zero
   852f8:	dfc00417 	ldw	ra,16(sp)
   852fc:	dcc00317 	ldw	r19,12(sp)
   85300:	dc800217 	ldw	r18,8(sp)
   85304:	dc400117 	ldw	r17,4(sp)
   85308:	dc000017 	ldw	r16,0(sp)
   8530c:	dec00504 	addi	sp,sp,20
   85310:	f800283a 	ret
   85314:	9009883a 	mov	r4,r18
   85318:	0086ae80 	call	86ae8 <_sbrk_r>
   8531c:	844dc83a 	sub	r6,r16,r17
   85320:	00ffffc4 	movi	r3,-1
   85324:	9009883a 	mov	r4,r18
   85328:	000b883a 	mov	r5,zero
   8532c:	01c00274 	movhi	r7,9
   85330:	39da4904 	addi	r7,r7,26916
   85334:	31800054 	ori	r6,r6,1
   85338:	10c00926 	beq	r2,r3,85360 <_malloc_trim_r+0xe8>
   8533c:	38800017 	ldw	r2,0(r7)
   85340:	98c00217 	ldw	r3,8(r19)
   85344:	9009883a 	mov	r4,r18
   85348:	1445c83a 	sub	r2,r2,r17
   8534c:	38800015 	stw	r2,0(r7)
   85350:	19800115 	stw	r6,4(r3)
   85354:	008ded00 	call	8ded0 <__malloc_unlock>
   85358:	00800044 	movi	r2,1
   8535c:	003fe606 	br	852f8 <_malloc_trim_r+0x80>
   85360:	0086ae80 	call	86ae8 <_sbrk_r>
   85364:	99800217 	ldw	r6,8(r19)
   85368:	100f883a 	mov	r7,r2
   8536c:	9009883a 	mov	r4,r18
   85370:	1187c83a 	sub	r3,r2,r6
   85374:	008003c4 	movi	r2,15
   85378:	19400054 	ori	r5,r3,1
   8537c:	10ffdc0e 	bge	r2,r3,852f0 <_malloc_trim_r+0x78>
   85380:	00800274 	movhi	r2,9
   85384:	10933004 	addi	r2,r2,19648
   85388:	10c00017 	ldw	r3,0(r2)
   8538c:	00800274 	movhi	r2,9
   85390:	109a4904 	addi	r2,r2,26916
   85394:	31400115 	stw	r5,4(r6)
   85398:	38c7c83a 	sub	r3,r7,r3
   8539c:	10c00015 	stw	r3,0(r2)
   853a0:	003fd306 	br	852f0 <_malloc_trim_r+0x78>

000853a4 <_free_r>:
   853a4:	defffd04 	addi	sp,sp,-12
   853a8:	dc400115 	stw	r17,4(sp)
   853ac:	dc000015 	stw	r16,0(sp)
   853b0:	dfc00215 	stw	ra,8(sp)
   853b4:	2821883a 	mov	r16,r5
   853b8:	2023883a 	mov	r17,r4
   853bc:	28005a26 	beq	r5,zero,85528 <_free_r+0x184>
   853c0:	008deb00 	call	8deb0 <__malloc_lock>
   853c4:	823ffe04 	addi	r8,r16,-8
   853c8:	41400117 	ldw	r5,4(r8)
   853cc:	00bfff84 	movi	r2,-2
   853d0:	02800274 	movhi	r10,9
   853d4:	528d4404 	addi	r10,r10,13584
   853d8:	288e703a 	and	r7,r5,r2
   853dc:	41cd883a 	add	r6,r8,r7
   853e0:	30c00117 	ldw	r3,4(r6)
   853e4:	51000217 	ldw	r4,8(r10)
   853e8:	00bfff04 	movi	r2,-4
   853ec:	1892703a 	and	r9,r3,r2
   853f0:	5017883a 	mov	r11,r10
   853f4:	31006726 	beq	r6,r4,85594 <_free_r+0x1f0>
   853f8:	2880004c 	andi	r2,r5,1
   853fc:	1005003a 	cmpeq	r2,r2,zero
   85400:	32400115 	stw	r9,4(r6)
   85404:	10001a1e 	bne	r2,zero,85470 <_free_r+0xcc>
   85408:	000b883a 	mov	r5,zero
   8540c:	3247883a 	add	r3,r6,r9
   85410:	18800117 	ldw	r2,4(r3)
   85414:	1080004c 	andi	r2,r2,1
   85418:	1000231e 	bne	r2,zero,854a8 <_free_r+0x104>
   8541c:	280ac03a 	cmpne	r5,r5,zero
   85420:	3a4f883a 	add	r7,r7,r9
   85424:	2800451e 	bne	r5,zero,8553c <_free_r+0x198>
   85428:	31000217 	ldw	r4,8(r6)
   8542c:	00800274 	movhi	r2,9
   85430:	108d4604 	addi	r2,r2,13592
   85434:	20807b26 	beq	r4,r2,85624 <_free_r+0x280>
   85438:	30800317 	ldw	r2,12(r6)
   8543c:	3a07883a 	add	r3,r7,r8
   85440:	19c00015 	stw	r7,0(r3)
   85444:	11000215 	stw	r4,8(r2)
   85448:	20800315 	stw	r2,12(r4)
   8544c:	38800054 	ori	r2,r7,1
   85450:	40800115 	stw	r2,4(r8)
   85454:	28001a26 	beq	r5,zero,854c0 <_free_r+0x11c>
   85458:	8809883a 	mov	r4,r17
   8545c:	dfc00217 	ldw	ra,8(sp)
   85460:	dc400117 	ldw	r17,4(sp)
   85464:	dc000017 	ldw	r16,0(sp)
   85468:	dec00304 	addi	sp,sp,12
   8546c:	008ded01 	jmpi	8ded0 <__malloc_unlock>
   85470:	80bffe17 	ldw	r2,-8(r16)
   85474:	50c00204 	addi	r3,r10,8
   85478:	4091c83a 	sub	r8,r8,r2
   8547c:	41000217 	ldw	r4,8(r8)
   85480:	388f883a 	add	r7,r7,r2
   85484:	20c06126 	beq	r4,r3,8560c <_free_r+0x268>
   85488:	40800317 	ldw	r2,12(r8)
   8548c:	3247883a 	add	r3,r6,r9
   85490:	000b883a 	mov	r5,zero
   85494:	11000215 	stw	r4,8(r2)
   85498:	20800315 	stw	r2,12(r4)
   8549c:	18800117 	ldw	r2,4(r3)
   854a0:	1080004c 	andi	r2,r2,1
   854a4:	103fdd26 	beq	r2,zero,8541c <_free_r+0x78>
   854a8:	38800054 	ori	r2,r7,1
   854ac:	3a07883a 	add	r3,r7,r8
   854b0:	280ac03a 	cmpne	r5,r5,zero
   854b4:	40800115 	stw	r2,4(r8)
   854b8:	19c00015 	stw	r7,0(r3)
   854bc:	283fe61e 	bne	r5,zero,85458 <_free_r+0xb4>
   854c0:	00807fc4 	movi	r2,511
   854c4:	11c01f2e 	bgeu	r2,r7,85544 <_free_r+0x1a0>
   854c8:	3806d27a 	srli	r3,r7,9
   854cc:	1800481e 	bne	r3,zero,855f0 <_free_r+0x24c>
   854d0:	3804d0fa 	srli	r2,r7,3
   854d4:	100690fa 	slli	r3,r2,3
   854d8:	1acd883a 	add	r6,r3,r11
   854dc:	31400217 	ldw	r5,8(r6)
   854e0:	31405926 	beq	r6,r5,85648 <_free_r+0x2a4>
   854e4:	28800117 	ldw	r2,4(r5)
   854e8:	00ffff04 	movi	r3,-4
   854ec:	10c4703a 	and	r2,r2,r3
   854f0:	3880022e 	bgeu	r7,r2,854fc <_free_r+0x158>
   854f4:	29400217 	ldw	r5,8(r5)
   854f8:	317ffa1e 	bne	r6,r5,854e4 <_free_r+0x140>
   854fc:	29800317 	ldw	r6,12(r5)
   85500:	41800315 	stw	r6,12(r8)
   85504:	41400215 	stw	r5,8(r8)
   85508:	8809883a 	mov	r4,r17
   8550c:	2a000315 	stw	r8,12(r5)
   85510:	32000215 	stw	r8,8(r6)
   85514:	dfc00217 	ldw	ra,8(sp)
   85518:	dc400117 	ldw	r17,4(sp)
   8551c:	dc000017 	ldw	r16,0(sp)
   85520:	dec00304 	addi	sp,sp,12
   85524:	008ded01 	jmpi	8ded0 <__malloc_unlock>
   85528:	dfc00217 	ldw	ra,8(sp)
   8552c:	dc400117 	ldw	r17,4(sp)
   85530:	dc000017 	ldw	r16,0(sp)
   85534:	dec00304 	addi	sp,sp,12
   85538:	f800283a 	ret
   8553c:	31000217 	ldw	r4,8(r6)
   85540:	003fbd06 	br	85438 <_free_r+0x94>
   85544:	3806d0fa 	srli	r3,r7,3
   85548:	00800044 	movi	r2,1
   8554c:	51400117 	ldw	r5,4(r10)
   85550:	180890fa 	slli	r4,r3,3
   85554:	1807d0ba 	srai	r3,r3,2
   85558:	22c9883a 	add	r4,r4,r11
   8555c:	21800217 	ldw	r6,8(r4)
   85560:	10c4983a 	sll	r2,r2,r3
   85564:	41000315 	stw	r4,12(r8)
   85568:	41800215 	stw	r6,8(r8)
   8556c:	288ab03a 	or	r5,r5,r2
   85570:	22000215 	stw	r8,8(r4)
   85574:	8809883a 	mov	r4,r17
   85578:	51400115 	stw	r5,4(r10)
   8557c:	32000315 	stw	r8,12(r6)
   85580:	dfc00217 	ldw	ra,8(sp)
   85584:	dc400117 	ldw	r17,4(sp)
   85588:	dc000017 	ldw	r16,0(sp)
   8558c:	dec00304 	addi	sp,sp,12
   85590:	008ded01 	jmpi	8ded0 <__malloc_unlock>
   85594:	2880004c 	andi	r2,r5,1
   85598:	3a4d883a 	add	r6,r7,r9
   8559c:	1000071e 	bne	r2,zero,855bc <_free_r+0x218>
   855a0:	80bffe17 	ldw	r2,-8(r16)
   855a4:	4091c83a 	sub	r8,r8,r2
   855a8:	41000317 	ldw	r4,12(r8)
   855ac:	40c00217 	ldw	r3,8(r8)
   855b0:	308d883a 	add	r6,r6,r2
   855b4:	20c00215 	stw	r3,8(r4)
   855b8:	19000315 	stw	r4,12(r3)
   855bc:	00800274 	movhi	r2,9
   855c0:	10932f04 	addi	r2,r2,19644
   855c4:	11000017 	ldw	r4,0(r2)
   855c8:	30c00054 	ori	r3,r6,1
   855cc:	52000215 	stw	r8,8(r10)
   855d0:	40c00115 	stw	r3,4(r8)
   855d4:	313fa036 	bltu	r6,r4,85458 <_free_r+0xb4>
   855d8:	00800274 	movhi	r2,9
   855dc:	109a3b04 	addi	r2,r2,26860
   855e0:	11400017 	ldw	r5,0(r2)
   855e4:	8809883a 	mov	r4,r17
   855e8:	00852780 	call	85278 <_malloc_trim_r>
   855ec:	003f9a06 	br	85458 <_free_r+0xb4>
   855f0:	00800104 	movi	r2,4
   855f4:	10c0072e 	bgeu	r2,r3,85614 <_free_r+0x270>
   855f8:	00800504 	movi	r2,20
   855fc:	10c01936 	bltu	r2,r3,85664 <_free_r+0x2c0>
   85600:	188016c4 	addi	r2,r3,91
   85604:	100690fa 	slli	r3,r2,3
   85608:	003fb306 	br	854d8 <_free_r+0x134>
   8560c:	01400044 	movi	r5,1
   85610:	003f7e06 	br	8540c <_free_r+0x68>
   85614:	3804d1ba 	srli	r2,r7,6
   85618:	10800e04 	addi	r2,r2,56
   8561c:	100690fa 	slli	r3,r2,3
   85620:	003fad06 	br	854d8 <_free_r+0x134>
   85624:	22000315 	stw	r8,12(r4)
   85628:	22000215 	stw	r8,8(r4)
   8562c:	3a05883a 	add	r2,r7,r8
   85630:	38c00054 	ori	r3,r7,1
   85634:	11c00015 	stw	r7,0(r2)
   85638:	41000215 	stw	r4,8(r8)
   8563c:	40c00115 	stw	r3,4(r8)
   85640:	41000315 	stw	r4,12(r8)
   85644:	003f8406 	br	85458 <_free_r+0xb4>
   85648:	1005d0ba 	srai	r2,r2,2
   8564c:	00c00044 	movi	r3,1
   85650:	51000117 	ldw	r4,4(r10)
   85654:	1886983a 	sll	r3,r3,r2
   85658:	20c8b03a 	or	r4,r4,r3
   8565c:	51000115 	stw	r4,4(r10)
   85660:	003fa706 	br	85500 <_free_r+0x15c>
   85664:	00801504 	movi	r2,84
   85668:	10c00436 	bltu	r2,r3,8567c <_free_r+0x2d8>
   8566c:	3804d33a 	srli	r2,r7,12
   85670:	10801b84 	addi	r2,r2,110
   85674:	100690fa 	slli	r3,r2,3
   85678:	003f9706 	br	854d8 <_free_r+0x134>
   8567c:	00805504 	movi	r2,340
   85680:	10c00436 	bltu	r2,r3,85694 <_free_r+0x2f0>
   85684:	3804d3fa 	srli	r2,r7,15
   85688:	10801dc4 	addi	r2,r2,119
   8568c:	100690fa 	slli	r3,r2,3
   85690:	003f9106 	br	854d8 <_free_r+0x134>
   85694:	00815504 	movi	r2,1364
   85698:	10c0032e 	bgeu	r2,r3,856a8 <_free_r+0x304>
   8569c:	00801f84 	movi	r2,126
   856a0:	00c0fc04 	movi	r3,1008
   856a4:	003f8c06 	br	854d8 <_free_r+0x134>
   856a8:	3804d4ba 	srli	r2,r7,18
   856ac:	10801f04 	addi	r2,r2,124
   856b0:	100690fa 	slli	r3,r2,3
   856b4:	003f8806 	br	854d8 <_free_r+0x134>

000856b8 <_fseek_r>:
   856b8:	deffe804 	addi	sp,sp,-96
   856bc:	dd801515 	stw	r22,84(sp)
   856c0:	dcc01215 	stw	r19,72(sp)
   856c4:	dc801115 	stw	r18,68(sp)
   856c8:	dc000f15 	stw	r16,60(sp)
   856cc:	dfc01715 	stw	ra,92(sp)
   856d0:	ddc01615 	stw	r23,88(sp)
   856d4:	dd401415 	stw	r21,80(sp)
   856d8:	dd001315 	stw	r20,76(sp)
   856dc:	dc401015 	stw	r17,64(sp)
   856e0:	2025883a 	mov	r18,r4
   856e4:	2821883a 	mov	r16,r5
   856e8:	302d883a 	mov	r22,r6
   856ec:	3827883a 	mov	r19,r7
   856f0:	20000226 	beq	r4,zero,856fc <_fseek_r+0x44>
   856f4:	20800e17 	ldw	r2,56(r4)
   856f8:	10007826 	beq	r2,zero,858dc <_fseek_r+0x224>
   856fc:	8080030b 	ldhu	r2,12(r16)
   85700:	00c04204 	movi	r3,264
   85704:	1080420c 	andi	r2,r2,264
   85708:	10c07926 	beq	r2,r3,858f0 <_fseek_r+0x238>
   8570c:	85400a17 	ldw	r21,40(r16)
   85710:	a800ea26 	beq	r21,zero,85abc <_fseek_r+0x404>
   85714:	00800044 	movi	r2,1
   85718:	98805f26 	beq	r19,r2,85898 <_fseek_r+0x1e0>
   8571c:	00800084 	movi	r2,2
   85720:	98801026 	beq	r19,r2,85764 <_fseek_r+0xac>
   85724:	98000f26 	beq	r19,zero,85764 <_fseek_r+0xac>
   85728:	00800584 	movi	r2,22
   8572c:	013fffc4 	movi	r4,-1
   85730:	90800015 	stw	r2,0(r18)
   85734:	2005883a 	mov	r2,r4
   85738:	dfc01717 	ldw	ra,92(sp)
   8573c:	ddc01617 	ldw	r23,88(sp)
   85740:	dd801517 	ldw	r22,84(sp)
   85744:	dd401417 	ldw	r21,80(sp)
   85748:	dd001317 	ldw	r20,76(sp)
   8574c:	dcc01217 	ldw	r19,72(sp)
   85750:	dc801117 	ldw	r18,68(sp)
   85754:	dc401017 	ldw	r17,64(sp)
   85758:	dc000f17 	ldw	r16,60(sp)
   8575c:	dec01804 	addi	sp,sp,96
   85760:	f800283a 	ret
   85764:	81800417 	ldw	r6,16(r16)
   85768:	0023883a 	mov	r17,zero
   8576c:	002f883a 	mov	r23,zero
   85770:	3000a626 	beq	r6,zero,85a0c <_fseek_r+0x354>
   85774:	8100030b 	ldhu	r4,12(r16)
   85778:	2082068c 	andi	r2,r4,2074
   8577c:	1000081e 	bne	r2,zero,857a0 <_fseek_r+0xe8>
   85780:	2081000c 	andi	r2,r4,1024
   85784:	10001b1e 	bne	r2,zero,857f4 <_fseek_r+0x13c>
   85788:	00800234 	movhi	r2,8
   8578c:	109ad804 	addi	r2,r2,27488
   85790:	a8800926 	beq	r21,r2,857b8 <_fseek_r+0x100>
   85794:	8080030b 	ldhu	r2,12(r16)
   85798:	10820014 	ori	r2,r2,2048
   8579c:	8080030d 	sth	r2,12(r16)
   857a0:	9009883a 	mov	r4,r18
   857a4:	800b883a 	mov	r5,r16
   857a8:	0084be40 	call	84be4 <_fflush_r>
   857ac:	1000a326 	beq	r2,zero,85a3c <_fseek_r+0x384>
   857b0:	013fffc4 	movi	r4,-1
   857b4:	003fdf06 	br	85734 <_fseek_r+0x7c>
   857b8:	8140038f 	ldh	r5,14(r16)
   857bc:	283ff516 	blt	r5,zero,85794 <_fseek_r+0xdc>
   857c0:	9009883a 	mov	r4,r18
   857c4:	d80d883a 	mov	r6,sp
   857c8:	0085b180 	call	85b18 <_fstat_r>
   857cc:	103ff11e 	bne	r2,zero,85794 <_fseek_r+0xdc>
   857d0:	d8800117 	ldw	r2,4(sp)
   857d4:	00e00014 	movui	r3,32768
   857d8:	10bc000c 	andi	r2,r2,61440
   857dc:	10ffed1e 	bne	r2,r3,85794 <_fseek_r+0xdc>
   857e0:	80c0030b 	ldhu	r3,12(r16)
   857e4:	00810004 	movi	r2,1024
   857e8:	80801315 	stw	r2,76(r16)
   857ec:	1886b03a 	or	r3,r3,r2
   857f0:	80c0030d 	sth	r3,12(r16)
   857f4:	9800701e 	bne	r19,zero,859b8 <_fseek_r+0x300>
   857f8:	b029883a 	mov	r20,r22
   857fc:	b804c03a 	cmpne	r2,r23,zero
   85800:	10003f1e 	bne	r2,zero,85900 <_fseek_r+0x248>
   85804:	8100030b 	ldhu	r4,12(r16)
   85808:	2084000c 	andi	r2,r4,4096
   8580c:	1000a126 	beq	r2,zero,85a94 <_fseek_r+0x3dc>
   85810:	81801417 	ldw	r6,80(r16)
   85814:	80c00117 	ldw	r3,4(r16)
   85818:	81400c17 	ldw	r5,48(r16)
   8581c:	30e3c83a 	sub	r17,r6,r3
   85820:	28008026 	beq	r5,zero,85a24 <_fseek_r+0x36c>
   85824:	81c00f17 	ldw	r7,60(r16)
   85828:	89e3c83a 	sub	r17,r17,r7
   8582c:	80800e17 	ldw	r2,56(r16)
   85830:	81800417 	ldw	r6,16(r16)
   85834:	88c7883a 	add	r3,r17,r3
   85838:	1185c83a 	sub	r2,r2,r6
   8583c:	11cf883a 	add	r7,r2,r7
   85840:	1887c83a 	sub	r3,r3,r2
   85844:	2088000c 	andi	r2,r4,8192
   85848:	10003e1e 	bne	r2,zero,85944 <_fseek_r+0x28c>
